(lp0
(dp1
S'supply'
p2
(lp3
I5
aI12
asS'total_resource'
p4
I5
sS'cost'
p5
(lp6
(lp7
(I3
I19
tp8
a(I2
I18
tp9
a(I7
I14
tp10
aa(lp11
(I8
I17
tp12
a(I6
I16
tp13
a(I9
I13
tp14
aasS'allow_non_allocated_resource'
p15
I00
sS'demand'
p16
(lp17
I7
aI6
aI4
asS'decision_set'
p18
(lp19
I0
aI1
aI2
aI3
aI4
aI5
asa(dp20
g2
(lp21
I5
aI12
asg4
I5
sg5
(lp22
(lp23
(I7
I13
tp24
a(I6
I11
tp25
a(I9
I12
tp26
aa(lp27
(I4
I19
tp28
a(I2
I17
tp29
a(I8
I14
tp30
aasg15
I00
sg16
(lp31
I7
aI6
aI4
asg18
(lp32
I0
aI1
aI2
aI3
aI4
aI5
asa(dp33
g2
(lp34
I5
aI12
asg4
I5
sg5
(lp35
(lp36
(I7
I15
tp37
a(I9
I19
tp38
a(I5
I12
tp39
aa(lp40
(I8
I18
tp41
a(I2
I16
tp42
a(I4
I14
tp43
aasg15
I00
sg16
(lp44
I7
aI6
aI4
asg18
(lp45
I0
aI1
aI2
aI3
aI4
aI5
asa(dp46
g2
(lp47
I5
aI12
asg4
I5
sg5
(lp48
(lp49
(I9
I13
tp50
a(I3
I15
tp51
a(I7
I14
tp52
aa(lp53
(I8
I12
tp54
a(I6
I17
tp55
a(I4
I19
tp56
aasg15
I00
sg16
(lp57
I7
aI6
aI4
asg18
(lp58
I0
aI1
aI2
aI3
aI4
aI5
asa(dp59
g2
(lp60
I5
aI12
asg4
I5
sg5
(lp61
(lp62
(I5
I14
tp63
a(I3
I12
tp64
a(I4
I16
tp65
aa(lp66
(I6
I19
tp67
a(I7
I11
tp68
a(I9
I15
tp69
aasg15
I00
sg16
(lp70
I7
aI6
aI4
asg18
(lp71
I0
aI1
aI2
aI3
aI4
aI5
asa(dp72
g2
(lp73
I5
aI12
asg4
I5
sg5
(lp74
(lp75
(I3
I18
tp76
a(I6
I17
tp77
a(I8
I14
tp78
aa(lp79
(I5
I13
tp80
a(I9
I11
tp81
a(I7
I16
tp82
aasg15
I00
sg16
(lp83
I7
aI6
aI4
asg18
(lp84
I0
aI1
aI2
aI3
aI4
aI5
asa(dp85
g2
(lp86
I5
aI12
asg4
I5
sg5
(lp87
(lp88
(I5
I17
tp89
a(I6
I11
tp90
a(I3
I13
tp91
aa(lp92
(I4
I16
tp93
a(I7
I18
tp94
a(I2
I12
tp95
aasg15
I00
sg16
(lp96
I7
aI6
aI4
asg18
(lp97
I0
aI1
aI2
aI3
aI4
aI5
asa(dp98
g2
(lp99
I5
aI12
asg4
I5
sg5
(lp100
(lp101
(I2
I16
tp102
a(I7
I11
tp103
a(I4
I18
tp104
aa(lp105
(I5
I12
tp106
a(I3
I14
tp107
a(I9
I17
tp108
aasg15
I00
sg16
(lp109
I7
aI6
aI4
asg18
(lp110
I0
aI1
aI2
aI3
aI4
aI5
asa(dp111
g2
(lp112
I5
aI12
asg4
I5
sg5
(lp113
(lp114
(I9
I15
tp115
a(I2
I16
tp116
a(I5
I14
tp117
aa(lp118
(I6
I19
tp119
a(I3
I11
tp120
a(I7
I18
tp121
aasg15
I00
sg16
(lp122
I7
aI6
aI4
asg18
(lp123
I0
aI1
aI2
aI3
aI4
aI5
asa(dp124
g2
(lp125
I5
aI12
asg4
I5
sg5
(lp126
(lp127
(I2
I14
tp128
a(I4
I13
tp129
a(I3
I17
tp130
aa(lp131
(I6
I18
tp132
a(I5
I19
tp133
a(I7
I11
tp134
aasg15
I00
sg16
(lp135
I7
aI6
aI4
asg18
(lp136
I0
aI1
aI2
aI3
aI4
aI5
asa(dp137
g2
(lp138
I5
aI12
asg4
I5
sg5
(lp139
(lp140
(I5
I18
tp141
a(I9
I17
tp142
a(I4
I16
tp143
aa(lp144
(I8
I11
tp145
a(I6
I15
tp146
a(I2
I13
tp147
aasg15
I00
sg16
(lp148
I7
aI6
aI4
asg18
(lp149
I0
aI1
aI2
aI3
aI4
aI5
asa(dp150
g2
(lp151
I5
aI12
asg4
I5
sg5
(lp152
(lp153
(I5
I14
tp154
a(I6
I11
tp155
a(I2
I17
tp156
aa(lp157
(I7
I13
tp158
a(I8
I15
tp159
a(I9
I18
tp160
aasg15
I00
sg16
(lp161
I7
aI6
aI4
asg18
(lp162
I0
aI1
aI2
aI3
aI4
aI5
asa(dp163
g2
(lp164
I5
aI12
asg4
I5
sg5
(lp165
(lp166
(I3
I15
tp167
a(I2
I11
tp168
a(I8
I16
tp169
aa(lp170
(I6
I13
tp171
a(I7
I12
tp172
a(I9
I14
tp173
aasg15
I00
sg16
(lp174
I7
aI6
aI4
asg18
(lp175
I0
aI1
aI2
aI3
aI4
aI5
asa(dp176
g2
(lp177
I5
aI12
asg4
I5
sg5
(lp178
(lp179
(I7
I14
tp180
a(I2
I18
tp181
a(I8
I11
tp182
aa(lp183
(I5
I19
tp184
a(I4
I16
tp185
a(I9
I13
tp186
aasg15
I00
sg16
(lp187
I7
aI6
aI4
asg18
(lp188
I0
aI1
aI2
aI3
aI4
aI5
asa(dp189
g2
(lp190
I5
aI12
asg4
I5
sg5
(lp191
(lp192
(I7
I19
tp193
a(I9
I13
tp194
a(I5
I18
tp195
aa(lp196
(I2
I16
tp197
a(I4
I12
tp198
a(I3
I15
tp199
aasg15
I00
sg16
(lp200
I7
aI6
aI4
asg18
(lp201
I0
aI1
aI2
aI3
aI4
aI5
asa(dp202
g2
(lp203
I5
aI12
asg4
I5
sg5
(lp204
(lp205
(I5
I16
tp206
a(I3
I15
tp207
a(I9
I14
tp208
aa(lp209
(I4
I19
tp210
a(I7
I13
tp211
a(I6
I17
tp212
aasg15
I00
sg16
(lp213
I7
aI6
aI4
asg18
(lp214
I0
aI1
aI2
aI3
aI4
aI5
asa(dp215
g2
(lp216
I5
aI12
asg4
I5
sg5
(lp217
(lp218
(I2
I14
tp219
a(I6
I13
tp220
a(I5
I12
tp221
aa(lp222
(I4
I16
tp223
a(I9
I15
tp224
a(I8
I18
tp225
aasg15
I00
sg16
(lp226
I7
aI6
aI4
asg18
(lp227
I0
aI1
aI2
aI3
aI4
aI5
asa(dp228
g2
(lp229
I5
aI12
asg4
I5
sg5
(lp230
(lp231
(I9
I19
tp232
a(I6
I14
tp233
a(I3
I12
tp234
aa(lp235
(I7
I16
tp236
a(I5
I17
tp237
a(I4
I18
tp238
aasg15
I00
sg16
(lp239
I7
aI6
aI4
asg18
(lp240
I0
aI1
aI2
aI3
aI4
aI5
asa(dp241
g2
(lp242
I5
aI12
asg4
I5
sg5
(lp243
(lp244
(I7
I16
tp245
a(I5
I17
tp246
a(I6
I15
tp247
aa(lp248
(I4
I12
tp249
a(I3
I18
tp250
a(I2
I19
tp251
aasg15
I00
sg16
(lp252
I7
aI6
aI4
asg18
(lp253
I0
aI1
aI2
aI3
aI4
aI5
asa(dp254
g2
(lp255
I5
aI12
asg4
I5
sg5
(lp256
(lp257
(I3
I11
tp258
a(I4
I16
tp259
a(I5
I18
tp260
aa(lp261
(I7
I12
tp262
a(I2
I14
tp263
a(I6
I17
tp264
aasg15
I00
sg16
(lp265
I7
aI6
aI4
asg18
(lp266
I0
aI1
aI2
aI3
aI4
aI5
asa(dp267
g2
(lp268
I5
aI12
asg4
I5
sg5
(lp269
(lp270
(I4
I18
tp271
a(I6
I11
tp272
a(I2
I16
tp273
aa(lp274
(I7
I17
tp275
a(I9
I12
tp276
a(I5
I15
tp277
aasg15
I00
sg16
(lp278
I7
aI6
aI4
asg18
(lp279
I0
aI1
aI2
aI3
aI4
aI5
asa(dp280
g2
(lp281
I5
aI12
asg4
I5
sg5
(lp282
(lp283
(I3
I11
tp284
a(I9
I13
tp285
a(I7
I19
tp286
aa(lp287
(I4
I14
tp288
a(I2
I16
tp289
a(I8
I18
tp290
aasg15
I00
sg16
(lp291
I7
aI6
aI4
asg18
(lp292
I0
aI1
aI2
aI3
aI4
aI5
asa(dp293
g2
(lp294
I5
aI12
asg4
I5
sg5
(lp295
(lp296
(I6
I19
tp297
a(I3
I18
tp298
a(I5
I12
tp299
aa(lp300
(I4
I17
tp301
a(I7
I16
tp302
a(I8
I13
tp303
aasg15
I00
sg16
(lp304
I7
aI6
aI4
asg18
(lp305
I0
aI1
aI2
aI3
aI4
aI5
asa(dp306
g2
(lp307
I5
aI12
asg4
I5
sg5
(lp308
(lp309
(I5
I14
tp310
a(I3
I18
tp311
a(I8
I12
tp312
aa(lp313
(I9
I17
tp314
a(I7
I16
tp315
a(I2
I13
tp316
aasg15
I00
sg16
(lp317
I7
aI6
aI4
asg18
(lp318
I0
aI1
aI2
aI3
aI4
aI5
asa(dp319
g2
(lp320
I5
aI12
asg4
I5
sg5
(lp321
(lp322
(I6
I19
tp323
a(I3
I11
tp324
a(I4
I15
tp325
aa(lp326
(I8
I18
tp327
a(I7
I13
tp328
a(I2
I16
tp329
aasg15
I00
sg16
(lp330
I7
aI6
aI4
asg18
(lp331
I0
aI1
aI2
aI3
aI4
aI5
asa(dp332
g2
(lp333
I5
aI12
asg4
I5
sg5
(lp334
(lp335
(I3
I17
tp336
a(I8
I11
tp337
a(I5
I13
tp338
aa(lp339
(I7
I18
tp340
a(I4
I19
tp341
a(I9
I14
tp342
aasg15
I00
sg16
(lp343
I7
aI6
aI4
asg18
(lp344
I0
aI1
aI2
aI3
aI4
aI5
asa(dp345
g2
(lp346
I5
aI12
asg4
I5
sg5
(lp347
(lp348
(I4
I13
tp349
a(I6
I12
tp350
a(I8
I16
tp351
aa(lp352
(I9
I17
tp353
a(I5
I18
tp354
a(I2
I19
tp355
aasg15
I00
sg16
(lp356
I7
aI6
aI4
asg18
(lp357
I0
aI1
aI2
aI3
aI4
aI5
asa(dp358
g2
(lp359
I5
aI12
asg4
I5
sg5
(lp360
(lp361
(I6
I15
tp362
a(I5
I18
tp363
a(I9
I14
tp364
aa(lp365
(I2
I16
tp366
a(I4
I13
tp367
a(I3
I12
tp368
aasg15
I00
sg16
(lp369
I7
aI6
aI4
asg18
(lp370
I0
aI1
aI2
aI3
aI4
aI5
asa(dp371
g2
(lp372
I5
aI12
asg4
I5
sg5
(lp373
(lp374
(I6
I14
tp375
a(I4
I16
tp376
a(I8
I15
tp377
aa(lp378
(I3
I13
tp379
a(I2
I19
tp380
a(I9
I12
tp381
aasg15
I00
sg16
(lp382
I7
aI6
aI4
asg18
(lp383
I0
aI1
aI2
aI3
aI4
aI5
asa(dp384
g2
(lp385
I5
aI12
asg4
I5
sg5
(lp386
(lp387
(I5
I12
tp388
a(I4
I16
tp389
a(I8
I13
tp390
aa(lp391
(I2
I11
tp392
a(I9
I19
tp393
a(I3
I15
tp394
aasg15
I00
sg16
(lp395
I7
aI6
aI4
asg18
(lp396
I0
aI1
aI2
aI3
aI4
aI5
asa(dp397
g2
(lp398
I5
aI12
asg4
I5
sg5
(lp399
(lp400
(I4
I15
tp401
a(I8
I11
tp402
a(I7
I16
tp403
aa(lp404
(I5
I19
tp405
a(I2
I13
tp406
a(I6
I17
tp407
aasg15
I00
sg16
(lp408
I7
aI6
aI4
asg18
(lp409
I0
aI1
aI2
aI3
aI4
aI5
asa(dp410
g2
(lp411
I5
aI12
asg4
I5
sg5
(lp412
(lp413
(I3
I12
tp414
a(I2
I17
tp415
a(I6
I16
tp416
aa(lp417
(I9
I15
tp418
a(I8
I19
tp419
a(I5
I18
tp420
aasg15
I00
sg16
(lp421
I7
aI6
aI4
asg18
(lp422
I0
aI1
aI2
aI3
aI4
aI5
asa(dp423
g2
(lp424
I5
aI12
asg4
I5
sg5
(lp425
(lp426
(I8
I11
tp427
a(I7
I12
tp428
a(I6
I15
tp429
aa(lp430
(I2
I13
tp431
a(I9
I19
tp432
a(I3
I17
tp433
aasg15
I00
sg16
(lp434
I7
aI6
aI4
asg18
(lp435
I0
aI1
aI2
aI3
aI4
aI5
asa(dp436
g2
(lp437
I5
aI12
asg4
I5
sg5
(lp438
(lp439
(I3
I17
tp440
a(I4
I11
tp441
a(I6
I13
tp442
aa(lp443
(I2
I12
tp444
a(I5
I16
tp445
a(I7
I14
tp446
aasg15
I00
sg16
(lp447
I7
aI6
aI4
asg18
(lp448
I0
aI1
aI2
aI3
aI4
aI5
asa(dp449
g2
(lp450
I5
aI12
asg4
I5
sg5
(lp451
(lp452
(I7
I11
tp453
a(I8
I16
tp454
a(I2
I18
tp455
aa(lp456
(I9
I15
tp457
a(I6
I17
tp458
a(I3
I12
tp459
aasg15
I00
sg16
(lp460
I7
aI6
aI4
asg18
(lp461
I0
aI1
aI2
aI3
aI4
aI5
asa(dp462
g2
(lp463
I5
aI12
asg4
I5
sg5
(lp464
(lp465
(I4
I18
tp466
a(I9
I17
tp467
a(I7
I16
tp468
aa(lp469
(I3
I11
tp470
a(I5
I19
tp471
a(I8
I15
tp472
aasg15
I00
sg16
(lp473
I7
aI6
aI4
asg18
(lp474
I0
aI1
aI2
aI3
aI4
aI5
asa(dp475
g2
(lp476
I5
aI12
asg4
I5
sg5
(lp477
(lp478
(I9
I11
tp479
a(I6
I13
tp480
a(I8
I19
tp481
aa(lp482
(I5
I17
tp483
a(I7
I18
tp484
a(I3
I15
tp485
aasg15
I00
sg16
(lp486
I7
aI6
aI4
asg18
(lp487
I0
aI1
aI2
aI3
aI4
aI5
asa(dp488
g2
(lp489
I5
aI12
asg4
I5
sg5
(lp490
(lp491
(I9
I15
tp492
a(I2
I17
tp493
a(I8
I14
tp494
aa(lp495
(I5
I19
tp496
a(I3
I12
tp497
a(I4
I18
tp498
aasg15
I00
sg16
(lp499
I7
aI6
aI4
asg18
(lp500
I0
aI1
aI2
aI3
aI4
aI5
asa(dp501
g2
(lp502
I5
aI12
asg4
I5
sg5
(lp503
(lp504
(I3
I13
tp505
a(I6
I12
tp506
a(I5
I16
tp507
aa(lp508
(I4
I11
tp509
a(I2
I15
tp510
a(I7
I14
tp511
aasg15
I00
sg16
(lp512
I7
aI6
aI4
asg18
(lp513
I0
aI1
aI2
aI3
aI4
aI5
asa(dp514
g2
(lp515
I5
aI12
asg4
I5
sg5
(lp516
(lp517
(I6
I13
tp518
a(I2
I19
tp519
a(I9
I16
tp520
aa(lp521
(I8
I11
tp522
a(I3
I12
tp523
a(I5
I18
tp524
aasg15
I00
sg16
(lp525
I7
aI6
aI4
asg18
(lp526
I0
aI1
aI2
aI3
aI4
aI5
asa(dp527
g2
(lp528
I5
aI12
asg4
I5
sg5
(lp529
(lp530
(I9
I18
tp531
a(I2
I13
tp532
a(I4
I11
tp533
aa(lp534
(I3
I19
tp535
a(I8
I12
tp536
a(I6
I14
tp537
aasg15
I00
sg16
(lp538
I7
aI6
aI4
asg18
(lp539
I0
aI1
aI2
aI3
aI4
aI5
asa(dp540
g2
(lp541
I5
aI12
asg4
I5
sg5
(lp542
(lp543
(I4
I18
tp544
a(I5
I12
tp545
a(I8
I13
tp546
aa(lp547
(I2
I15
tp548
a(I6
I14
tp549
a(I7
I16
tp550
aasg15
I00
sg16
(lp551
I7
aI6
aI4
asg18
(lp552
I0
aI1
aI2
aI3
aI4
aI5
asa(dp553
g2
(lp554
I5
aI12
asg4
I5
sg5
(lp555
(lp556
(I6
I13
tp557
a(I4
I15
tp558
a(I5
I18
tp559
aa(lp560
(I8
I19
tp561
a(I3
I16
tp562
a(I7
I11
tp563
aasg15
I00
sg16
(lp564
I7
aI6
aI4
asg18
(lp565
I0
aI1
aI2
aI3
aI4
aI5
asa(dp566
g2
(lp567
I5
aI12
asg4
I5
sg5
(lp568
(lp569
(I6
I16
tp570
a(I5
I12
tp571
a(I7
I17
tp572
aa(lp573
(I8
I18
tp574
a(I9
I15
tp575
a(I2
I13
tp576
aasg15
I00
sg16
(lp577
I7
aI6
aI4
asg18
(lp578
I0
aI1
aI2
aI3
aI4
aI5
asa(dp579
g2
(lp580
I5
aI12
asg4
I5
sg5
(lp581
(lp582
(I9
I11
tp583
a(I7
I17
tp584
a(I4
I18
tp585
aa(lp586
(I8
I12
tp587
a(I2
I14
tp588
a(I3
I19
tp589
aasg15
I00
sg16
(lp590
I7
aI6
aI4
asg18
(lp591
I0
aI1
aI2
aI3
aI4
aI5
asa(dp592
g2
(lp593
I5
aI12
asg4
I5
sg5
(lp594
(lp595
(I3
I12
tp596
a(I2
I19
tp597
a(I6
I13
tp598
aa(lp599
(I4
I11
tp600
a(I8
I15
tp601
a(I9
I18
tp602
aasg15
I00
sg16
(lp603
I7
aI6
aI4
asg18
(lp604
I0
aI1
aI2
aI3
aI4
aI5
asa(dp605
g2
(lp606
I5
aI12
asg4
I5
sg5
(lp607
(lp608
(I7
I15
tp609
a(I5
I11
tp610
a(I4
I19
tp611
aa(lp612
(I2
I13
tp613
a(I3
I14
tp614
a(I8
I12
tp615
aasg15
I00
sg16
(lp616
I7
aI6
aI4
asg18
(lp617
I0
aI1
aI2
aI3
aI4
aI5
asa(dp618
g2
(lp619
I5
aI12
asg4
I5
sg5
(lp620
(lp621
(I2
I17
tp622
a(I5
I11
tp623
a(I7
I14
tp624
aa(lp625
(I9
I15
tp626
a(I3
I16
tp627
a(I4
I12
tp628
aasg15
I00
sg16
(lp629
I7
aI6
aI4
asg18
(lp630
I0
aI1
aI2
aI3
aI4
aI5
asa(dp631
g2
(lp632
I5
aI12
asg4
I5
sg5
(lp633
(lp634
(I7
I14
tp635
a(I5
I19
tp636
a(I3
I18
tp637
aa(lp638
(I9
I13
tp639
a(I4
I16
tp640
a(I6
I15
tp641
aasg15
I00
sg16
(lp642
I7
aI6
aI4
asg18
(lp643
I0
aI1
aI2
aI3
aI4
aI5
asa(dp644
g2
(lp645
I5
aI12
asg4
I5
sg5
(lp646
(lp647
(I7
I18
tp648
a(I5
I14
tp649
a(I3
I15
tp650
aa(lp651
(I9
I16
tp652
a(I2
I17
tp653
a(I8
I19
tp654
aasg15
I00
sg16
(lp655
I7
aI6
aI4
asg18
(lp656
I0
aI1
aI2
aI3
aI4
aI5
asa(dp657
g2
(lp658
I5
aI12
asg4
I5
sg5
(lp659
(lp660
(I6
I16
tp661
a(I5
I14
tp662
a(I3
I17
tp663
aa(lp664
(I9
I19
tp665
a(I2
I12
tp666
a(I4
I18
tp667
aasg15
I00
sg16
(lp668
I7
aI6
aI4
asg18
(lp669
I0
aI1
aI2
aI3
aI4
aI5
asa(dp670
g2
(lp671
I5
aI12
asg4
I5
sg5
(lp672
(lp673
(I8
I11
tp674
a(I4
I16
tp675
a(I7
I13
tp676
aa(lp677
(I3
I19
tp678
a(I2
I18
tp679
a(I6
I15
tp680
aasg15
I00
sg16
(lp681
I7
aI6
aI4
asg18
(lp682
I0
aI1
aI2
aI3
aI4
aI5
asa(dp683
g2
(lp684
I5
aI12
asg4
I5
sg5
(lp685
(lp686
(I9
I18
tp687
a(I8
I14
tp688
a(I6
I15
tp689
aa(lp690
(I4
I17
tp691
a(I5
I11
tp692
a(I2
I12
tp693
aasg15
I00
sg16
(lp694
I7
aI6
aI4
asg18
(lp695
I0
aI1
aI2
aI3
aI4
aI5
asa(dp696
g2
(lp697
I5
aI12
asg4
I5
sg5
(lp698
(lp699
(I2
I17
tp700
a(I7
I19
tp701
a(I4
I18
tp702
aa(lp703
(I8
I11
tp704
a(I5
I16
tp705
a(I3
I12
tp706
aasg15
I00
sg16
(lp707
I7
aI6
aI4
asg18
(lp708
I0
aI1
aI2
aI3
aI4
aI5
asa(dp709
g2
(lp710
I5
aI11
asg4
I5
sg5
(lp711
(lp712
(I9
I19
tp713
a(I5
I18
tp714
a(I6
I11
tp715
aa(lp716
(I7
I13
tp717
a(I3
I12
tp718
a(I4
I14
tp719
aasg15
I00
sg16
(lp720
I7
aI4
aI5
asg18
(lp721
I0
aI1
aI2
aI3
aI4
aI5
asa(dp722
g2
(lp723
I5
aI11
asg4
I5
sg5
(lp724
(lp725
(I3
I12
tp726
a(I2
I13
tp727
a(I6
I18
tp728
aa(lp729
(I4
I15
tp730
a(I5
I17
tp731
a(I9
I19
tp732
aasg15
I00
sg16
(lp733
I7
aI4
aI5
asg18
(lp734
I0
aI1
aI2
aI3
aI4
aI5
asa(dp735
g2
(lp736
I5
aI11
asg4
I5
sg5
(lp737
(lp738
(I5
I12
tp739
a(I7
I11
tp740
a(I3
I17
tp741
aa(lp742
(I8
I18
tp743
a(I4
I16
tp744
a(I2
I13
tp745
aasg15
I00
sg16
(lp746
I7
aI4
aI5
asg18
(lp747
I0
aI1
aI2
aI3
aI4
aI5
asa(dp748
g2
(lp749
I5
aI11
asg4
I5
sg5
(lp750
(lp751
(I4
I14
tp752
a(I5
I12
tp753
a(I6
I11
tp754
aa(lp755
(I3
I13
tp756
a(I7
I17
tp757
a(I9
I16
tp758
aasg15
I00
sg16
(lp759
I7
aI4
aI5
asg18
(lp760
I0
aI1
aI2
aI3
aI4
aI5
asa(dp761
g2
(lp762
I5
aI11
asg4
I5
sg5
(lp763
(lp764
(I2
I19
tp765
a(I8
I17
tp766
a(I6
I18
tp767
aa(lp768
(I3
I16
tp769
a(I4
I14
tp770
a(I9
I13
tp771
aasg15
I00
sg16
(lp772
I7
aI4
aI5
asg18
(lp773
I0
aI1
aI2
aI3
aI4
aI5
asa(dp774
g2
(lp775
I5
aI11
asg4
I5
sg5
(lp776
(lp777
(I2
I13
tp778
a(I9
I16
tp779
a(I8
I11
tp780
aa(lp781
(I6
I15
tp782
a(I7
I12
tp783
a(I3
I14
tp784
aasg15
I00
sg16
(lp785
I7
aI4
aI5
asg18
(lp786
I0
aI1
aI2
aI3
aI4
aI5
asa(dp787
g2
(lp788
I5
aI11
asg4
I5
sg5
(lp789
(lp790
(I9
I12
tp791
a(I2
I14
tp792
a(I4
I11
tp793
aa(lp794
(I5
I18
tp795
a(I3
I16
tp796
a(I8
I15
tp797
aasg15
I00
sg16
(lp798
I7
aI4
aI5
asg18
(lp799
I0
aI1
aI2
aI3
aI4
aI5
asa(dp800
g2
(lp801
I5
aI11
asg4
I5
sg5
(lp802
(lp803
(I2
I11
tp804
a(I5
I15
tp805
a(I8
I12
tp806
aa(lp807
(I6
I13
tp808
a(I9
I19
tp809
a(I3
I18
tp810
aasg15
I00
sg16
(lp811
I7
aI4
aI5
asg18
(lp812
I0
aI1
aI2
aI3
aI4
aI5
asa(dp813
g2
(lp814
I5
aI11
asg4
I5
sg5
(lp815
(lp816
(I6
I17
tp817
a(I4
I14
tp818
a(I5
I15
tp819
aa(lp820
(I8
I19
tp821
a(I3
I13
tp822
a(I9
I11
tp823
aasg15
I00
sg16
(lp824
I7
aI4
aI5
asg18
(lp825
I0
aI1
aI2
aI3
aI4
aI5
asa(dp826
g2
(lp827
I5
aI11
asg4
I5
sg5
(lp828
(lp829
(I4
I15
tp830
a(I9
I19
tp831
a(I3
I13
tp832
aa(lp833
(I2
I17
tp834
a(I6
I18
tp835
a(I7
I11
tp836
aasg15
I00
sg16
(lp837
I7
aI4
aI5
asg18
(lp838
I0
aI1
aI2
aI3
aI4
aI5
asa(dp839
g2
(lp840
I5
aI11
asg4
I5
sg5
(lp841
(lp842
(I9
I16
tp843
a(I3
I19
tp844
a(I4
I18
tp845
aa(lp846
(I6
I14
tp847
a(I5
I12
tp848
a(I2
I11
tp849
aasg15
I00
sg16
(lp850
I7
aI4
aI5
asg18
(lp851
I0
aI1
aI2
aI3
aI4
aI5
asa(dp852
g2
(lp853
I5
aI11
asg4
I5
sg5
(lp854
(lp855
(I8
I11
tp856
a(I9
I18
tp857
a(I4
I15
tp858
aa(lp859
(I5
I19
tp860
a(I3
I17
tp861
a(I7
I14
tp862
aasg15
I00
sg16
(lp863
I7
aI4
aI5
asg18
(lp864
I0
aI1
aI2
aI3
aI4
aI5
asa(dp865
g2
(lp866
I5
aI11
asg4
I5
sg5
(lp867
(lp868
(I2
I18
tp869
a(I5
I14
tp870
a(I6
I11
tp871
aa(lp872
(I8
I15
tp873
a(I9
I16
tp874
a(I3
I12
tp875
aasg15
I00
sg16
(lp876
I7
aI4
aI5
asg18
(lp877
I0
aI1
aI2
aI3
aI4
aI5
asa(dp878
g2
(lp879
I5
aI11
asg4
I5
sg5
(lp880
(lp881
(I9
I18
tp882
a(I3
I17
tp883
a(I5
I15
tp884
aa(lp885
(I8
I14
tp886
a(I2
I16
tp887
a(I7
I12
tp888
aasg15
I00
sg16
(lp889
I7
aI4
aI5
asg18
(lp890
I0
aI1
aI2
aI3
aI4
aI5
asa(dp891
g2
(lp892
I5
aI11
asg4
I5
sg5
(lp893
(lp894
(I2
I14
tp895
a(I6
I16
tp896
a(I9
I12
tp897
aa(lp898
(I5
I18
tp899
a(I3
I13
tp900
a(I8
I15
tp901
aasg15
I00
sg16
(lp902
I7
aI4
aI5
asg18
(lp903
I0
aI1
aI2
aI3
aI4
aI5
asa(dp904
g2
(lp905
I5
aI11
asg4
I5
sg5
(lp906
(lp907
(I6
I19
tp908
a(I2
I16
tp909
a(I8
I15
tp910
aa(lp911
(I9
I13
tp912
a(I4
I14
tp913
a(I5
I17
tp914
aasg15
I00
sg16
(lp915
I7
aI4
aI5
asg18
(lp916
I0
aI1
aI2
aI3
aI4
aI5
asa(dp917
g2
(lp918
I5
aI11
asg4
I5
sg5
(lp919
(lp920
(I5
I17
tp921
a(I9
I16
tp922
a(I3
I11
tp923
aa(lp924
(I6
I15
tp925
a(I2
I13
tp926
a(I8
I12
tp927
aasg15
I00
sg16
(lp928
I7
aI4
aI5
asg18
(lp929
I0
aI1
aI2
aI3
aI4
aI5
asa(dp930
g2
(lp931
I5
aI11
asg4
I5
sg5
(lp932
(lp933
(I9
I11
tp934
a(I3
I18
tp935
a(I2
I16
tp936
aa(lp937
(I6
I13
tp938
a(I8
I17
tp939
a(I4
I15
tp940
aasg15
I00
sg16
(lp941
I7
aI4
aI5
asg18
(lp942
I0
aI1
aI2
aI3
aI4
aI5
asa(dp943
g2
(lp944
I5
aI11
asg4
I5
sg5
(lp945
(lp946
(I5
I12
tp947
a(I2
I18
tp948
a(I3
I13
tp949
aa(lp950
(I4
I17
tp951
a(I8
I16
tp952
a(I9
I19
tp953
aasg15
I00
sg16
(lp954
I7
aI4
aI5
asg18
(lp955
I0
aI1
aI2
aI3
aI4
aI5
asag943
a(dp956
g2
(lp957
I5
aI10
asg4
I5
sg5
(lp958
(lp959
(I2
I11
tp960
a(I5
I14
tp961
a(I3
I16
tp962
aa(lp963
(I6
I18
tp964
a(I9
I17
tp965
a(I4
I12
tp966
aasg15
I00
sg16
(lp967
I6
aI5
aI4
asg18
(lp968
I0
aI1
aI2
aI3
aI4
aI5
asa(dp969
g2
(lp970
I5
aI10
asg4
I5
sg5
(lp971
(lp972
(I4
I13
tp973
a(I6
I16
tp974
a(I2
I12
tp975
aa(lp976
(I5
I15
tp977
a(I3
I11
tp978
a(I8
I19
tp979
aasg15
I00
sg16
(lp980
I6
aI5
aI4
asg18
(lp981
I0
aI1
aI2
aI3
aI4
aI5
asa(dp982
g2
(lp983
I5
aI10
asg4
I5
sg5
(lp984
(lp985
(I9
I12
tp986
a(I5
I17
tp987
a(I3
I15
tp988
aa(lp989
(I2
I18
tp990
a(I6
I13
tp991
a(I7
I11
tp992
aasg15
I00
sg16
(lp993
I6
aI5
aI4
asg18
(lp994
I0
aI1
aI2
aI3
aI4
aI5
asa(dp995
g2
(lp996
I5
aI10
asg4
I5
sg5
(lp997
(lp998
(I2
I17
tp999
a(I6
I12
tp1000
a(I8
I14
tp1001
aa(lp1002
(I4
I19
tp1003
a(I5
I15
tp1004
a(I9
I18
tp1005
aasg15
I00
sg16
(lp1006
I6
aI5
aI4
asg18
(lp1007
I0
aI1
aI2
aI3
aI4
aI5
asa(dp1008
g2
(lp1009
I5
aI10
asg4
I5
sg5
(lp1010
(lp1011
(I6
I15
tp1012
a(I5
I14
tp1013
a(I9
I19
tp1014
aa(lp1015
(I3
I13
tp1016
a(I8
I17
tp1017
a(I7
I12
tp1018
aasg15
I00
sg16
(lp1019
I6
aI5
aI4
asg18
(lp1020
I0
aI1
aI2
aI3
aI4
aI5
asa(dp1021
g2
(lp1022
I5
aI10
asg4
I5
sg5
(lp1023
(lp1024
(I8
I15
tp1025
a(I5
I13
tp1026
a(I6
I12
tp1027
aa(lp1028
(I9
I14
tp1029
a(I2
I16
tp1030
a(I7
I17
tp1031
aasg15
I00
sg16
(lp1032
I6
aI5
aI4
asg18
(lp1033
I0
aI1
aI2
aI3
aI4
aI5
asa(dp1034
g2
(lp1035
I5
aI10
asg4
I5
sg5
(lp1036
(lp1037
(I5
I14
tp1038
a(I2
I18
tp1039
a(I8
I15
tp1040
aa(lp1041
(I4
I19
tp1042
a(I6
I16
tp1043
a(I3
I13
tp1044
aasg15
I00
sg16
(lp1045
I6
aI5
aI4
asg18
(lp1046
I0
aI1
aI2
aI3
aI4
aI5
asa(dp1047
g2
(lp1048
I5
aI10
asg4
I5
sg5
(lp1049
(lp1050
(I6
I13
tp1051
a(I5
I16
tp1052
a(I4
I11
tp1053
aa(lp1054
(I2
I17
tp1055
a(I7
I19
tp1056
a(I3
I15
tp1057
aasg15
I00
sg16
(lp1058
I6
aI5
aI4
asg18
(lp1059
I0
aI1
aI2
aI3
aI4
aI5
asa(dp1060
g2
(lp1061
I5
aI10
asg4
I5
sg5
(lp1062
(lp1063
(I4
I12
tp1064
a(I3
I11
tp1065
a(I6
I17
tp1066
aa(lp1067
(I7
I18
tp1068
a(I2
I16
tp1069
a(I9
I13
tp1070
aasg15
I00
sg16
(lp1071
I6
aI5
aI4
asg18
(lp1072
I0
aI1
aI2
aI3
aI4
aI5
asa(dp1073
g2
(lp1074
I5
aI10
asg4
I5
sg5
(lp1075
(lp1076
(I6
I11
tp1077
a(I2
I13
tp1078
a(I9
I18
tp1079
aa(lp1080
(I7
I12
tp1081
a(I8
I17
tp1082
a(I4
I14
tp1083
aasg15
I00
sg16
(lp1084
I6
aI5
aI4
asg18
(lp1085
I0
aI1
aI2
aI3
aI4
aI5
asa(dp1086
g2
(lp1087
I5
aI10
asg4
I5
sg5
(lp1088
(lp1089
(I3
I13
tp1090
a(I6
I17
tp1091
a(I8
I11
tp1092
aa(lp1093
(I7
I18
tp1094
a(I4
I14
tp1095
a(I9
I19
tp1096
aasg15
I00
sg16
(lp1097
I6
aI5
aI4
asg18
(lp1098
I0
aI1
aI2
aI3
aI4
aI5
asa(dp1099
g2
(lp1100
I5
aI10
asg4
I5
sg5
(lp1101
(lp1102
(I3
I15
tp1103
a(I8
I11
tp1104
a(I6
I16
tp1105
aa(lp1106
(I5
I13
tp1107
a(I4
I19
tp1108
a(I2
I14
tp1109
aasg15
I00
sg16
(lp1110
I6
aI5
aI4
asg18
(lp1111
I0
aI1
aI2
aI3
aI4
aI5
asa(dp1112
g2
(lp1113
I5
aI10
asg4
I5
sg5
(lp1114
(lp1115
(I6
I19
tp1116
a(I9
I13
tp1117
a(I3
I14
tp1118
aa(lp1119
(I7
I15
tp1120
a(I4
I18
tp1121
a(I8
I12
tp1122
aasg15
I00
sg16
(lp1123
I6
aI5
aI4
asg18
(lp1124
I0
aI1
aI2
aI3
aI4
aI5
asa(dp1125
g2
(lp1126
I5
aI10
asg4
I5
sg5
(lp1127
(lp1128
(I9
I12
tp1129
a(I8
I18
tp1130
a(I6
I16
tp1131
aa(lp1132
(I7
I15
tp1133
a(I4
I13
tp1134
a(I2
I17
tp1135
aasg15
I00
sg16
(lp1136
I6
aI5
aI4
asg18
(lp1137
I0
aI1
aI2
aI3
aI4
aI5
asa(dp1138
g2
(lp1139
I5
aI10
asg4
I5
sg5
(lp1140
(lp1141
(I6
I14
tp1142
a(I3
I18
tp1143
a(I9
I13
tp1144
aa(lp1145
(I8
I11
tp1146
a(I4
I15
tp1147
a(I2
I12
tp1148
aasg15
I00
sg16
(lp1149
I6
aI5
aI4
asg18
(lp1150
I0
aI1
aI2
aI3
aI4
aI5
asa(dp1151
g2
(lp1152
I5
aI10
asg4
I5
sg5
(lp1153
(lp1154
(I8
I19
tp1155
a(I2
I13
tp1156
a(I7
I18
tp1157
aa(lp1158
(I6
I11
tp1159
a(I4
I12
tp1160
a(I5
I17
tp1161
aasg15
I00
sg16
(lp1162
I6
aI5
aI4
asg18
(lp1163
I0
aI1
aI2
aI3
aI4
aI5
asa(dp1164
g2
(lp1165
I5
aI10
asg4
I5
sg5
(lp1166
(lp1167
(I8
I15
tp1168
a(I6
I19
tp1169
a(I9
I18
tp1170
aa(lp1171
(I7
I11
tp1172
a(I4
I13
tp1173
a(I3
I12
tp1174
aasg15
I00
sg16
(lp1175
I6
aI5
aI4
asg18
(lp1176
I0
aI1
aI2
aI3
aI4
aI5
asa(dp1177
g2
(lp1178
I5
aI10
asg4
I5
sg5
(lp1179
(lp1180
(I2
I11
tp1181
a(I7
I16
tp1182
a(I3
I15
tp1183
aa(lp1184
(I5
I18
tp1185
a(I4
I13
tp1186
a(I6
I12
tp1187
aasg15
I00
sg16
(lp1188
I6
aI5
aI4
asg18
(lp1189
I0
aI1
aI2
aI3
aI4
aI5
asa(dp1190
g2
(lp1191
I5
aI10
asg4
I5
sg5
(lp1192
(lp1193
(I8
I15
tp1194
a(I9
I19
tp1195
a(I6
I14
tp1196
aa(lp1197
(I2
I11
tp1198
a(I3
I17
tp1199
a(I7
I16
tp1200
aasg15
I00
sg16
(lp1201
I6
aI5
aI4
asg18
(lp1202
I0
aI1
aI2
aI3
aI4
aI5
asa.