(lp0
S'{"sensitive": {}, "z": "Z", "goal": [1, 4, 3], "dual": false, "sign_str": null, "x": "x", "sign": null, "qtype": "min", "x_list": null, "constraints": [[1, 1, 1, ">", 3], [-2, -1, 1, ">", 2]]}'
p1
aS'{"sensitive": {}, "z": "Z", "goal": [1, 4, 0, 3], "dual": false, "sign_str": null, "x": "x", "sign": null, "qtype": "min", "x_list": null, "constraints": [[1, 1, -1, 1, ">", 3], [-2, -1, 4, 1, ">", 2]]}'
p2
aS'{"sensitive": {}, "z": "Z", "goal": [2, 3, 4], "dual": false, "sign_str": null, "x": "x", "sign": null, "qtype": "min", "x_list": null, "constraints": [[1, -2, 1, ">", 3], [2, -1, 3, ">", 4]]}'
p3
aS'{"sensitive": {}, "z": "Z", "goal": [2, 3, 5, 6], "dual": false, "sign_str": null, "x": "x", "sign": null, "qtype": "min", "x_list": null, "constraints": [[1, 2, 3, 1, ">", 2], [-2, 1, -1, 3, "<", -3]]}'
p4
aS'{"sensitive": {}, "z": "Z", "goal": [160, 50], "dual": false, "sign_str": null, "x": "x", "sign": null, "qtype": "min", "x_list": null, "constraints": [[4, 1, ">", 2], [1, 1, ">", 2], [5, 1, ">", 4]]}'
p5
aS'{"sensitive": {}, "z": "Z", "goal": [3, 9], "dual": false, "sign_str": null, "x": "x", "sign": null, "qtype": "min", "x_list": null, "constraints": [[1, 1, ">", 2], [1, 4, ">", 3], [1, 7, ">", 3]]}'
p6
aS'{"sensitive": {}, "z": "Z", "goal": [2, 2, 1], "dual": false, "sign_str": null, "x": "x", "sign": null, "qtype": "min", "x_list": null, "constraints": [[2, 2, 4, ">", 16], [1, 2, 1, ">", 10], [3, 2, 0, ">", 8]]}'
p7
aS'{"sensitive": {}, "z": "Z", "goal": [3, 2, 2, 5], "dual": false, "sign_str": null, "x": "x", "sign": null, "qtype": "min", "x_list": null, "constraints": [[2, 1, 1, 3, ">", 12], [1, 3, 2, 1, ">", 18]]}'
p8
aS'{"sensitive": {}, "z": "Z", "goal": [3, 2, 1, 4], "dual": false, "sign_str": null, "x": "x", "sign": null, "qtype": "min", "x_list": null, "constraints": [[2, -1, 1, -2, ">", 8], [4, 1, 4, 6, ">", 16]]}'
p9
aS'{"sensitive": {}, "z": "Z", "goal": [1, 2, 4, 1], "dual": false, "sign_str": null, "x": "x", "sign": null, "qtype": "min", "x_list": null, "constraints": [[1, 2, 3, 3, ">", 21], [2, 1, 1, 2, ">", 30]]}'
p10
aS'{"sensitive": {}, "z": "Z", "goal": [3, 4, 6], "dual": false, "sign_str": null, "x": "x", "sign": null, "qtype": "min", "x_list": null, "constraints": [[1, 2, 1, ">", 4], [2, -1, 3, ">", 5]]}'
p11
aS'{"sensitive": {}, "z": "Z", "goal": [4, 4, 5], "dual": false, "sign_str": null, "x": "x", "sign": null, "qtype": "min", "x_list": null, "constraints": [[1, 2, 2, ">", 6], [2, 1, 4, ">", 8], [4, -2, 3, ">", 12]]}'
p12
aS'{"sensitive": {}, "z": "Z", "goal": [7, 8, 9], "dual": false, "sign_str": null, "x": "x", "sign": null, "qtype": "min", "x_list": null, "constraints": [[1, 2, 3, ">", 48], [0, 2, 1, ">", 20]]}'
p13
aS'{"sensitive": {}, "z": "Z", "goal": [2, 3, 3], "dual": false, "sign_str": null, "x": "x", "sign": null, "qtype": "min", "x_list": null, "constraints": [[1, 1, 3, ">", 4], [2, -1, 1, ">", 3]]}'
p14
aS'{"sensitive": {}, "z": "Z", "goal": [1, 1, 2], "dual": false, "sign_str": null, "x": "x", "sign": null, "qtype": "min", "x_list": null, "constraints": [[1, 2, 1, ">", 4], [2, 1, 1, ">", 6]]}'
p15
aS'{"sensitive": {}, "z": "Z", "goal": [3, 1, 1], "dual": false, "sign_str": null, "x": "x", "sign": null, "qtype": "min", "x_list": null, "constraints": [[2, 1, 2, ">", 12], [1, 2, 1, ">", 9]]}'
p16
aS'{"sensitive": {}, "z": "Z", "goal": [1, 1, 2], "dual": false, "sign_str": null, "x": "x", "sign": null, "qtype": "min", "x_list": null, "constraints": [[2, 1, 2, ">", 4], [1, 7, 1, ">", 7]]}'
p17
aS'{"sensitive": {}, "z": "Z", "goal": [4, 1, 3], "dual": false, "sign_str": null, "x": "x", "sign": null, "qtype": "min", "x_list": null, "constraints": [[7, 1, 2, ">", 6], [4, 2, 3, ">", 8]]}'
p18
aS'{"sensitive": {}, "z": "Z", "goal": [2, 3, 4], "dual": false, "sign_str": null, "x": "x", "sign": null, "qtype": "min", "x_list": null, "constraints": [[1, 2, 1, ">", 3], [2, -1, 3, ">", 4]]}'
p19
aS'{"sensitive": {}, "z": "Z", "goal": [15, 24, 5], "dual": false, "sign_str": null, "x": "x", "sign": null, "qtype": "min", "x_list": null, "constraints": [[0, 6, 1, ">", 2], [5, 2, 1, ">", 1]]}'
p20
aS'{"sensitive": {}, "z": "Z", "goal": [15, 24, 5], "dual": false, "sign_str": null, "x": "x", "sign": null, "qtype": "min", "x_list": null, "constraints": [[5, 8, 2, ">", 6], [5, 2, 1, ">", 4]]}'
p21
aS'{"sensitive": {}, "z": "Z", "goal": [5, 6, 3], "dual": false, "sign_str": null, "x": "x", "sign": null, "qtype": "min", "x_list": null, "constraints": [[2, 1, 1, ">", 6], [2, 1, 2, ">", 10]]}'
p22
aS'{"sensitive": {}, "z": "Z", "goal": [24, 15, 5], "dual": false, "sign_str": null, "x": "x", "sign": null, "qtype": "min", "x_list": null, "constraints": [[6, 0, 1, ">", 4], [2, 5, 1, ">", 2]]}'
p23
aS'{"sensitive": {}, "z": "Z", "goal": [2, 3, 1, 4], "dual": false, "sign_str": null, "x": "x", "sign": null, "qtype": "min", "x_list": null, "constraints": [[-1, 2, 3, -6, ">", 9], [2, 4, 1, 2, ">", 7]]}'
p24
aS'{"sensitive": {}, "z": "Z", "goal": [3, 2, 1, 4], "dual": false, "sign_str": null, "x": "x", "sign": null, "qtype": "min", "x_list": null, "constraints": [[2, -1, 3, -6, ">", 6], [4, 2, 1, 2, ">", 7]]}'
p25
aS'{"sensitive": {}, "z": "Z", "goal": [-5, -35, -20], "dual": false, "sign_str": null, "x": "x", "sign": null, "qtype": "max", "x_list": null, "constraints": [[-1, 1, 1, ">", 2], [1, 3, 0, ">", 3]]}'
p26
aS'{"sensitive": {}, "z": "Z", "goal": [3, 4, 6], "dual": false, "sign_str": null, "x": "x", "sign": null, "qtype": "min", "x_list": null, "constraints": [[1, 2, 3, ">", 5], [1, 1, 1, ">", 3]]}'
p27
aS'{"sensitive": {}, "z": "Z", "goal": [2, 3, 1], "dual": false, "sign_str": null, "x": "x", "sign": null, "qtype": "min", "x_list": null, "constraints": [[5, 1, 2, ">", 10], [1, 1, 2, ">", 5]]}'
p28
aS'{"sensitive": {}, "z": "Z", "goal": [2, 6, 9], "dual": false, "sign_str": null, "x": "x", "sign": null, "qtype": "min", "x_list": null, "constraints": [[1, 0, 3, ">", 3], [0, 2, 2, ">", 5]]}'
p29
aS'{"sensitive": {}, "z": "Z", "goal": [3, 2, 4], "dual": false, "sign_str": null, "x": "x", "sign": null, "qtype": "min", "x_list": null, "constraints": [[1, 1, 2, ">", 4], [2, 1, 3, ">", 5]]}'
p30
aS'{"sensitive": {}, "z": "Z", "goal": [4, 2, 3], "dual": false, "sign_str": null, "x": "x", "sign": null, "qtype": "min", "x_list": null, "constraints": [[4, 2, 3, ">", 12], [3, 1, 2, ">", 10]]}'
p31
aS'{"sensitive": {}, "z": "Z", "goal": [1, 2, 3], "dual": false, "sign_str": null, "x": "x", "sign": null, "qtype": "min", "x_list": null, "constraints": [[3, 1, 5, ">", 10], [1, 3, 2, ">", 12]]}'
p32
aS'{"sensitive": {}, "z": "Z", "goal": [4, 2, 3], "dual": false, "sign_str": null, "x": "x", "sign": null, "qtype": "min", "x_list": null, "constraints": [[2, 3, 1, ">", 12], [1, 2, 4, ">", 10]]}'
p33
aS'{"sensitive": {}, "z": "Z", "goal": [5, 2, 4], "dual": false, "sign_str": null, "x": "x", "sign": null, "qtype": "min", "x_list": null, "constraints": [[3, 1, 2, ">", 4], [6, 3, 2, ">", 10]]}'
p34
aS'{"sensitive": {}, "z": "Z", "goal": [9, 12, 15], "dual": false, "sign_str": null, "x": "x", "sign": null, "qtype": "min", "x_list": null, "constraints": [[2, 2, 1, ">", 10], [2, 3, 1, ">", 12], [1, 1, 5, ">", 14]]}'
p35
aS'{"sensitive": {}, "z": "Z", "goal": [1, 3, 2], "dual": false, "sign_str": null, "x": "x", "sign": null, "qtype": "min", "x_list": null, "constraints": [[1, -2, 3, ">", 4], [3, 1, -2, ">", 6]]}'
p36
aS'{"sensitive": {}, "z": "Z", "goal": [1, 2, 3], "dual": false, "sign_str": null, "x": "x", "sign": null, "qtype": "min", "x_list": null, "constraints": [[1, 2, -1, ">", 3], [2, 1, 1, ">", 4]]}'
p37
aS'{"sensitive": {}, "z": "Z", "goal": [2, 3, 5], "dual": false, "sign_str": null, "x": "x", "sign": null, "qtype": "min", "x_list": null, "constraints": [[2, 1, 2, ">", 8], [1, 2, -1, ">", 6]]}'
p38
aS'{"sensitive": {}, "z": "Z", "goal": [3, 4, 5], "dual": false, "sign_str": null, "x": "x", "sign": null, "qtype": "min", "x_list": null, "constraints": [[1, 2, 1, ">", 3], [2, -1, 3, ">", 4]]}'
p39
aS'{"sensitive": {}, "z": "Z", "goal": [3, 4, 5], "dual": false, "sign_str": null, "x": "x", "sign": null, "qtype": "min", "x_list": null, "constraints": [[1, -2, 1, ">", 3], [2, -1, 3, ">", 4]]}'
p40
aS'{"sensitive": {}, "z": "Z", "goal": [2, 3, 5], "dual": false, "sign_str": null, "x": "x", "sign": null, "qtype": "min", "x_list": null, "constraints": [[-1, 2, 1, ">", 3], [2, -1, 3, ">", 4]]}'
p41
aS'{"sensitive": {}, "z": "Z", "goal": [1, 2, 3], "dual": false, "sign_str": null, "x": "x", "sign": null, "qtype": "min", "x_list": null, "constraints": [[1, 3, 2, ">", 3], [2, 1, 3, ">", 2]]}'
p42
aS'{"sensitive": {}, "z": "Z", "goal": [1, 2, 3], "dual": false, "sign_str": null, "x": "x", "sign": null, "qtype": "min", "x_list": null, "constraints": [[1, 3, 2, ">", 3], [2, 1, 3, ">", 2]]}'
p43
aS'{"sensitive": {}, "z": "Z", "goal": [6, 4, 7], "dual": false, "sign_str": null, "x": "x", "sign": null, "qtype": "min", "x_list": null, "constraints": [[1, 0, 3, ">", 2], [3, 2, 1, ">", 4], [-1, 2, 2, ">", 5]]}'
p44
aS'{"sensitive": {}, "z": "Z", "goal": [1, 2, 3], "dual": false, "sign_str": null, "x": "x", "sign": null, "qtype": "min", "x_list": null, "constraints": [[1, 1, 2, ">", 12], [2, -1, 1, ">", 10], [2, 4, 2, ">", 15]]}'
p45
aS'{"sensitive": {}, "z": "Z", "goal": [3, 2, 4], "dual": false, "sign_str": null, "x": "x", "sign": null, "qtype": "min", "x_list": null, "constraints": [[1, -1, 1, ">", 2], [-1, 2, 0, ">", 3], [2, 0, 1, ">", 4]]}'
p46
aS'{"sensitive": {}, "z": "Z", "goal": [3, 2, 1], "dual": false, "sign_str": null, "x": "x", "sign": null, "qtype": "min", "x_list": null, "constraints": [[1, -1, 1, ">", 2], [-1, 2, 0, ">", 3], [2, 0, 1, ">", 4]]}'
p47
aS'{"sensitive": {}, "z": "Z", "goal": [3, 5, 7], "dual": false, "sign_str": null, "x": "x", "sign": null, "qtype": "min", "x_list": null, "constraints": [[2, -1, 1, ">", 14], [1, 2, 1, "<", 13], [0, 2, -1, ">", 4]]}'
p48
aS'{"sensitive": {}, "z": "Z", "goal": [-5, -35, -20], "dual": false, "sign_str": null, "x": "x", "sign": null, "qtype": "max", "x_list": null, "constraints": [[-1, 1, 1, ">", 2], [1, 3, 0, ">", 3]]}'
p49
a.