(lp0
S'{"sensitive": {}, "z": "Z", "goal": [1, 2, 1], "dual": false, "sign_str": null, "x": "x", "sign": null, "qtype": "max", "x_list": null, "constraints": [[1, 1, -2, "<", 10], [2, -1, 4, "<", 8], [-1, 2, -4, "<", 4]]}'
p1
aS'{"sensitive": {}, "z": "Z", "goal": [1, 2, 1], "dual": false, "sign_str": null, "x": "x", "sign": null, "qtype": "max", "x_list": null, "constraints": [[1, 1, -1, "<", 10], [-1, 2, 1, "<", 12], [2, 3, 2, "<", 20]]}'
p2
aS'{"sensitive": {}, "z": "Z", "goal": [2, -3, 4], "dual": false, "sign_str": null, "x": "x", "sign": null, "qtype": "max", "x_list": null, "constraints": [[1, 4, -2, "<", 20], [-3, -1, 3, "<", 30], [2, 1, 1, "<", 16]]}'
p3
aS'{"sensitive": {}, "z": "Z", "goal": [1, 2, 1], "dual": false, "sign_str": null, "x": "x", "sign": null, "qtype": "max", "x_list": null, "constraints": [[1, 1, 1, "<", 4], [-1, 2, -2, "<", 6], [2, 1, 0, "<", 5]]}'
p4
aS'{"sensitive": {}, "z": "Z", "goal": [3, 5, 4], "dual": false, "sign_str": null, "x": "x", "sign": null, "qtype": "max", "x_list": null, "constraints": [[1, 0, 2, "<", 4], [2, 0, 1, "<", 12], [3, 2, 1, "<", 18]]}'
p5
aS'{"sensitive": {}, "z": "Z", "goal": [2, -1, 1], "dual": false, "sign_str": null, "x": "x", "sign": null, "qtype": "max", "x_list": null, "constraints": [[3, 1, 1, "<", 60], [1, -1, 2, "<", 10], [1, 1, -1, "<", 20]]}'
p6
aS'{"sensitive": {}, "z": "Z", "goal": [2, -1, 1], "dual": false, "sign_str": null, "x": "x", "sign": null, "qtype": "max", "x_list": null, "constraints": [[1, -1, 2, "<", 10], [1, 1, -1, "<", 20], [3, 1, 1, "<", 60]]}'
p7
aS'{"sensitive": {}, "z": "Z", "goal": [2, 4], "dual": false, "sign_str": null, "x": "x", "sign": null, "qtype": "max", "x_list": null, "constraints": [[-1, 2, "<", 4], [1, 2, "<", 10], [1, -1, "<", 2]]}'
p8
aS'{"sensitive": {}, "z": "Z", "goal": [2, 1, 2], "dual": false, "sign_str": null, "x": "x", "sign": null, "qtype": "max", "x_list": null, "constraints": [[4, 3, 8, "<", 12], [4, 1, 12, "<", 8], [4, -1, 3, "<", 8]]}'
p9
aS'{"sensitive": {}, "z": "Z", "goal": [-1, -4, -5], "dual": false, "sign_str": null, "x": "x", "sign": null, "qtype": "min", "x_list": null, "constraints": [[1, 1, 0, "<", 6], [-1, 1, 3, "<", 8], [3, 1, 1, "<", 10]]}'
p10
aS'{"sensitive": {}, "z": "Z", "goal": [3, 5, 1], "dual": false, "sign_str": null, "x": "x", "sign": null, "qtype": "max", "x_list": null, "constraints": [[2, 3, -1, "<", 32], [3, 1, 1, "<", 30], [-1, 2, 3, "<", 22]]}'
p11
aS'{"sensitive": {}, "z": "Z", "goal": [6, -3, 3], "dual": false, "sign_str": null, "x": "x", "sign": null, "qtype": "max", "x_list": null, "constraints": [[2, 1, 0, "<", 8], [-4, -2, 3, "<", 14], [1, -2, 1, "<", 18]]}'
p12
aS'{"sensitive": {}, "z": "Z", "goal": [5, 3, 2], "dual": false, "sign_str": null, "x": "x", "sign": null, "qtype": "max", "x_list": null, "constraints": [[1, 1, 1, "<", 80], [10, 2, 3, "<", 100]]}'
p13
aS'{"sensitive": {}, "z": "Z", "goal": [-1, 3, 2], "dual": false, "sign_str": null, "x": "x", "sign": null, "qtype": "max", "x_list": null, "constraints": [[2, 4, -1, "<", 30], [3, 2, 5, "<", 50], [1, -3, 4, "<", 40]]}'
p14
aS'{"sensitive": {}, "z": "Z", "goal": [6, 1, 2], "dual": false, "sign_str": null, "x": "x", "sign": null, "qtype": "max", "x_list": null, "constraints": [[1, 3, 1, "<", 12], [2, 0, 1, "<", 6], [1, 1, 0, "<", 2]]}'
p15
aS'{"sensitive": {}, "z": "Z", "goal": [2, 3, 1], "dual": false, "sign_str": null, "x": "x", "sign": null, "qtype": "max", "x_list": null, "constraints": [[1, 1, 0, "<", 5], [4, -1, 1, "<", 8], [0, 0, 1, "<", 2]]}'
p16
aS'{"sensitive": {}, "z": "Z", "goal": [4, -2, 2], "dual": false, "sign_str": null, "x": "x", "sign": null, "qtype": "max", "x_list": null, "constraints": [[3, 1, 1, "<", 60], [1, -1, 2, "<", 10], [2, 2, -2, "<", 40]]}'
p17
aS'{"sensitive": {}, "z": "Z", "goal": [4, -2, 2], "dual": false, "sign_str": null, "x": "x", "sign": null, "qtype": "max", "x_list": null, "constraints": [[3, 1, 1, "<", 60], [1, -1, 2, "<", 10], [2, 2, -2, "<", 40]]}'
p18
aS'{"sensitive": {}, "z": "Z", "goal": [3, 2, 5], "dual": false, "sign_str": null, "x": "x", "sign": null, "qtype": "max", "x_list": null, "constraints": [[1, 2, 1, "<", 40], [3, 0, 2, "<", 60], [1, 4, 0, "<", 30]]}'
p19
aS'{"sensitive": {}, "z": "Z", "goal": [-2, 3, 4], "dual": false, "sign_str": null, "x": "x", "sign": null, "qtype": "max", "x_list": null, "constraints": [[1, 2, 0, "<", 12], [1, 3, 1, "<", 18], [0, 0, 1, "<", 4]]}'
p20
aS'{"sensitive": {}, "z": "Z", "goal": [6, -2, 3], "dual": false, "sign_str": null, "x": "x", "sign": null, "qtype": "max", "x_list": null, "constraints": [[2, -1, 2, "<", 2], [1, 0, 4, "<", 4]]}'
p21
aS'{"sensitive": {}, "z": "Z", "goal": [3, 1, 3], "dual": false, "sign_str": null, "x": "x", "sign": null, "qtype": "max", "x_list": null, "constraints": [[2, 1, 1, "<", 2], [1, 2, 3, "<", 5], [2, 2, 1, "<", 6]]}'
p22
aS'{"sensitive": {}, "z": "Z", "goal": [6, -2, 3], "dual": false, "sign_str": null, "x": "x", "sign": null, "qtype": "max", "x_list": null, "constraints": [[2, -1, 2, "<", 2], [1, 0, 4, "<", 4]]}'
p23
aS'{"sensitive": {}, "z": "Z", "goal": [-6, 3, 5], "dual": false, "sign_str": null, "x": "x", "sign": null, "qtype": "max", "x_list": null, "constraints": [[2, 1, 0, "<", 8], [-4, -2, 3, "<", 56], [1, -1, 1, "<", 16]]}'
p24
aS'{"sensitive": {}, "z": "Z", "goal": [1, -2, 3], "dual": false, "sign_str": null, "x": "x", "sign": null, "qtype": "min", "x_list": null, "constraints": [[1, 1, 1, "<", 15], [2, -1, 3, "<", 18], [-3, 2, 2, "<", 16]]}'
p25
aS'{"sensitive": {}, "z": "Z", "goal": [4, 8, 3], "dual": false, "sign_str": null, "x": "x", "sign": null, "qtype": "max", "x_list": null, "constraints": [[2, 0, 3, "<", 8], [0, 1, 0, "<", 5], [2, 3, 1, "<", 21]]}'
p26
aS'{"sensitive": {}, "z": "Z", "goal": [1, -2, 1], "dual": false, "sign_str": null, "x": "x", "sign": null, "qtype": "min", "x_list": null, "constraints": [[1, 1, -2, "<", 10], [2, -1, 4, "<", 8], [-1, 2, -4, "<", 4]]}'
p27
aS'{"sensitive": {}, "z": "Z", "goal": [1, 3, 2], "dual": false, "sign_str": null, "x": "x", "sign": null, "qtype": "max", "x_list": null, "constraints": [[1, 2, -1, "<", 16], [1, 2, 1, "<", 32], [2, 3, 2, "<", 60]]}'
p28
aS'{"sensitive": {}, "z": "Z", "goal": [3, 2, 4], "dual": false, "sign_str": null, "x": "x", "sign": null, "qtype": "max", "x_list": null, "constraints": [[1, 0, 1, "<", 6], [2, 3, 0, "<", 8], [1, 1, 2, "<", 10]]}'
p29
aS'{"sensitive": {}, "z": "Z", "goal": [2, 5, 5], "dual": false, "sign_str": null, "x": "x", "sign": null, "qtype": "max", "x_list": null, "constraints": [[1, 1, 3, "<", 8], [1, 3, 1, "<", 20], [3, 2, 1, "<", 15]]}'
p30
aS'{"sensitive": {}, "z": "Z", "goal": [8, 4, 5], "dual": false, "sign_str": null, "x": "x", "sign": null, "qtype": "max", "x_list": null, "constraints": [[3, 2, 1, "<", 20], [1, 1, 2, "<", 10], [5, 4, 1, "<", 40]]}'
p31
aS'{"sensitive": {}, "z": "Z", "goal": [1, 2, 1], "dual": false, "sign_str": null, "x": "x", "sign": null, "qtype": "max", "x_list": null, "constraints": [[1, 1, -2, "<", 5], [3, 1, 4, "<", 20], [-1, 2, 2, "<", 25]]}'
p32
aS'{"sensitive": {}, "z": "Z", "goal": [4, 3, 2], "dual": false, "sign_str": null, "x": "x", "sign": null, "qtype": "max", "x_list": null, "constraints": [[1, 1, 1, "<", 16], [4, 1, 1, "<", 40], [2, 3, 1, "<", 30]]}'
p33
a.