(lp0
S'{"sensitive": {}, "z": "Z", "goal": [3, 1, 3], "dual": false, "sign_str": null, "x": "x", "sign": null, "qtype": "max", "x_list": null, "constraints": [[2, 1, 1, "<", 2], [1, 2, 3, "<", 5], [2, 2, 1, "<", 6]]}'
p1
a.