(lp0
S'{"sensitive": {}, "z": "Z", "goal": [3, -1, -1], "dual": false, "sign_str": null, "x": "x", "sign": null, "qtype": "max", "x_list": null, "constraints": [[1, -2, 1, "<", 10], [-4, 1, 2, ">", 4], [-2, 0, 1, "=", 1]]}'
p1
aS'{"sensitive": {}, "z": "Z", "goal": [1, 1, -3], "dual": false, "sign_str": null, "x": "x", "sign": null, "qtype": "min", "x_list": null, "constraints": [[1, -2, 1, "<", 11], [2, 1, -4, ">", 3], [1, 0, -2, "=", 1]]}'
p2
aS'{"sensitive": {}, "z": "Z", "goal": [3, 2, 1], "dual": false, "sign_str": null, "x": "x", "sign": null, "qtype": "min", "x_list": null, "constraints": [[1, 1, 1, "=", 50], [4, 5, 2, ">", 80]]}'
p3
aS'{"sensitive": {}, "z": "Z", "goal": [3, 7, 3], "dual": false, "sign_str": null, "x": "x", "sign": null, "qtype": "min", "x_list": null, "constraints": [[1, 4, 2, ">", 8], [3, 2, 0, ">", 6]]}'
p4
aS'{"sensitive": {}, "z": "Z", "goal": [2, 3, -5], "dual": false, "sign_str": null, "x": "x", "sign": null, "qtype": "max", "x_list": null, "constraints": [[1, 1, 1, "=", 7], [2, -5, 1, ">", 10]]}'
p5
aS'{"sensitive": {}, "z": "Z", "goal": [5, -2, -3], "dual": false, "sign_str": null, "x": "x", "sign": null, "qtype": "min", "x_list": null, "constraints": [[1, 2, 3, "=", 9], [2, 1, 1, "=", 5]]}'
p6
aS'{"sensitive": {}, "z": "Z", "goal": [2, 2, 4], "dual": false, "sign_str": null, "x": "x", "sign": null, "qtype": "min", "x_list": null, "constraints": [[2, 3, 5, ">", 2], [3, 1, 7, "<", 3], [1, 4, 6, "<", 5]]}'
p7
aS'{"sensitive": {}, "z": "Z", "goal": [1, 2, 5], "dual": false, "sign_str": null, "x": "x", "sign": null, "qtype": "min", "x_list": null, "constraints": [[1, -2, 3, "=", 12], [2, 3, -1, "=", 6]]}'
p8
aS'{"sensitive": {}, "z": "Z", "goal": [-3, 1, 2], "dual": false, "sign_str": null, "x": "x", "sign": null, "qtype": "min", "x_list": null, "constraints": [[1, 2, -1, "<", 10], [-2, -1, 1, ">", 2], [-4, 1, 2, ">", 5]]}'
p9
aS'{"sensitive": {}, "z": "Z", "goal": [3, 4, 5], "dual": false, "sign_str": null, "x": "x", "sign": null, "qtype": "min", "x_list": null, "constraints": [[1, 2, 3, ">", 5], [2, 2, 1, ">", 6]]}'
p10
aS'{"sensitive": {}, "z": "Z", "goal": [4, 6, -10], "dual": false, "sign_str": null, "x": "x", "sign": null, "qtype": "max", "x_list": null, "constraints": [[1, 1, 1, "=", 7], [2, -5, 1, ">", 10]]}'
p11
aS'{"sensitive": {}, "z": "Z", "goal": [1, -1, -1], "dual": false, "sign_str": null, "x": "x", "sign": null, "qtype": "max", "x_list": null, "constraints": [[1, 1, 1, "<", 4], [-2, 1, -1, ">", 2], [0, 2, 1, "=", 6]]}'
p12
aS'{"sensitive": {}, "z": "Z", "goal": [2, 3, 4], "dual": false, "sign_str": null, "x": "x", "sign": null, "qtype": "min", "x_list": null, "constraints": [[1, 2, 1, ">", 9], [2, -1, 3, ">", 12]]}'
p13
aS'{"sensitive": {}, "z": "Z", "goal": [-1, 1, 1], "dual": false, "sign_str": null, "x": "x", "sign": null, "qtype": "min", "x_list": null, "constraints": [[1, -1, 2, "<", 10], [-1, 1, 1, ">", 4], [-1, 0, 1, "=", 2]]}'
p14
aS'{"sensitive": {}, "z": "Z", "goal": [3, 5, 4], "dual": false, "sign_str": null, "x": "x", "sign": null, "qtype": "max", "x_list": null, "constraints": [[1, 0, 2, "<", 4], [0, 2, 1, ">", 12], [3, 2, 1, "=", 18]]}'
p15
aS'{"sensitive": {}, "z": "Z", "goal": [-3, 0, 1], "dual": false, "sign_str": null, "x": "x", "sign": null, "qtype": "max", "x_list": null, "constraints": [[-2, 1, -1, ">", 1], [0, 3, 1, "=", 9]]}'
p16
aS'{"sensitive": {}, "z": "Z", "goal": [2, 2, 4], "dual": false, "sign_str": null, "x": "x", "sign": null, "qtype": "max", "x_list": null, "constraints": [[2, 1, 1, "<", 3], [3, 4, 2, ">", 8]]}'
p17
aS'{"sensitive": {}, "z": "Z", "goal": [-3, 0, 1], "dual": false, "sign_str": null, "x": "x", "sign": null, "qtype": "max", "x_list": null, "constraints": [[1, 1, 1, "<", 4], [-2, 1, -1, ">", 1], [0, 3, 1, "=", 9]]}'
p18
aS'{"sensitive": {}, "z": "Z", "goal": [-2, -1, 1], "dual": false, "sign_str": null, "x": "x", "sign": null, "qtype": "min", "x_list": null, "constraints": [[1, 1, 2, "=", 6], [-1, 4, 1, "=", 8]]}'
p19
aS'{"sensitive": {}, "z": "Z", "goal": [3, 1, -1], "dual": false, "sign_str": null, "x": "x", "sign": null, "qtype": "min", "x_list": null, "constraints": [[1, 1, 1, "<", 4], [-2, 1, -1, ">", 1], [0, 3, 1, "=", 9]]}'
p20
aS'{"sensitive": {}, "z": "Z", "goal": [-1, -3, 1], "dual": false, "sign_str": null, "x": "x", "sign": null, "qtype": "min", "x_list": null, "constraints": [[1, 1, 2, "=", 4], [-1, 2, 1, "=", 4]]}'
p21
aS'{"sensitive": {}, "z": "Z", "goal": [4, 5, 1], "dual": false, "sign_str": null, "x": "x", "sign": null, "qtype": "max", "x_list": null, "constraints": [[3, 2, 1, ">", 6], [2, 1, 0, "<", 12], [1, 1, -1, "=", 5]]}'
p22
aS'{"sensitive": {}, "z": "Z", "goal": [-2, -1, 0], "dual": false, "sign_str": null, "x": "x", "sign": null, "qtype": "min", "x_list": null, "constraints": [[1, 1, -1, "=", 3], [-1, 1, 0, ">", 1], [1, 2, 0, "<", 8]]}'
p23
aS'{"sensitive": {}, "z": "Z", "goal": [-3, 1, 1], "dual": false, "sign_str": null, "x": "x", "sign": null, "qtype": "min", "x_list": null, "constraints": [[1, -2, 1, "<", 11], [-4, 1, 2, ">", 3], [-2, 0, 1, "=", 1]]}'
p24
aS'{"sensitive": {}, "z": "Z", "goal": [1, 5, 3], "dual": false, "sign_str": null, "x": "x", "sign": null, "qtype": "max", "x_list": null, "constraints": [[1, 2, 1, "=", 3], [2, -1, 1, "=", 5]]}'
p25
aS'{"sensitive": {}, "z": "Z", "goal": [2, 3, 1], "dual": false, "sign_str": null, "x": "x", "sign": null, "qtype": "max", "x_list": null, "constraints": [[2, 4, 3, ">", 10], [2, 2, 6, "=", 15]]}'
p26
aS'{"sensitive": {}, "z": "Z", "goal": [-5, 0, 1], "dual": false, "sign_str": null, "x": "x", "sign": null, "qtype": "max", "x_list": null, "constraints": [[1, 1, 1, "<", 4], [-2, 1, -1, ">", 1], [0, 3, 1, "=", 9]]}'
p27
aS'{"sensitive": {}, "z": "Z", "goal": [4, 2, 1], "dual": false, "sign_str": null, "x": "x", "sign": null, "qtype": "max", "x_list": null, "constraints": [[2, 3, 5, ">", 10], [2, 5, 7, "<", 20]]}'
p28
aS'{"sensitive": {}, "z": "Z", "goal": [2, 1, 2], "dual": false, "sign_str": null, "x": "x", "sign": null, "qtype": "max", "x_list": null, "constraints": [[1, 2, 4, ">", 8], [1, 1, 1, "=", 6]]}'
p29
aS'{"sensitive": {}, "z": "Z", "goal": [2, 3, 1], "dual": false, "sign_str": null, "x": "x", "sign": null, "qtype": "max", "x_list": null, "constraints": [[3, 5, 2, ">", 20], [4, 6, 3, "=", 30]]}'
p30
aS'{"sensitive": {}, "z": "Z", "goal": [1, 2, 1], "dual": false, "sign_str": null, "x": "x", "sign": null, "qtype": "max", "x_list": null, "constraints": [[2, 3, 1, ">", 12], [1, 1, 3, "=", 9]]}'
p31
aS'{"sensitive": {}, "z": "Z", "goal": [-1, 2, 1], "dual": false, "sign_str": null, "x": "x", "sign": null, "qtype": "min", "x_list": null, "constraints": [[1, 1, 1, "<", 9], [2, -1, 0, ">", 6], [0, 1, 3, "=", 12]]}'
p32
aS'{"sensitive": {}, "z": "Z", "goal": [1, 1, -2], "dual": false, "sign_str": null, "x": "x", "sign": null, "qtype": "min", "x_list": null, "constraints": [[1, 2, 3, "<", 12], [2, 1, -2, ">", 8]]}'
p33
aS'{"sensitive": {}, "z": "Z", "goal": [1, 2, 3], "dual": false, "sign_str": null, "x": "x", "sign": null, "qtype": "max", "x_list": null, "constraints": [[1, 1, 2, "<", 12], [2, -1, 1, ">", 6]]}'
p34
aS'{"sensitive": {}, "z": "Z", "goal": [2, 3, 1], "dual": false, "sign_str": null, "x": "x", "sign": null, "qtype": "max", "x_list": null, "constraints": [[2, -1, 3, ">", 6], [4, 1, 5, "=", 24]]}'
p35
aS'{"sensitive": {}, "z": "Z", "goal": [2, 3, 1], "dual": false, "sign_str": null, "x": "x", "sign": null, "qtype": "min", "x_list": null, "constraints": [[1, 3, 4, ">", 8], [3, 2, 2, ">", 18]]}'
p36
aS'{"sensitive": {}, "z": "Z", "goal": [2, 3, 1], "dual": false, "sign_str": null, "x": "x", "sign": null, "qtype": "min", "x_list": null, "constraints": [[1, 4, 2, ">", 8], [3, 2, 0, ">", 6]]}'
p37
aS'{"sensitive": {}, "z": "Z", "goal": [1, 1, -3], "dual": false, "sign_str": null, "x": "x", "sign": null, "qtype": "min", "x_list": null, "constraints": [[1, -2, 1, "<", 1], [2, 1, -4, ">", 3], [1, 0, -2, "=", 1]]}'
p38
aS'{"sensitive": {}, "z": "Z", "goal": [1, 5, 3], "dual": false, "sign_str": null, "x": "x", "sign": null, "qtype": "max", "x_list": null, "constraints": [[1, 2, 1, "=", 5], [2, -1, 1, ">", 6]]}'
p39
aS'{"sensitive": {}, "z": "Z", "goal": [-3, 0, 1], "dual": false, "sign_str": null, "x": "x", "sign": null, "qtype": "max", "x_list": null, "constraints": [[-2, 1, -1, ">", 1], [0, 3, 1, "=", 9]]}'
p40
a.