(lp0
S'{"sensitive": {}, "z": "Z", "goal": [4, 8, 3], "dual": false, "sign_str": null, "x": "x", "sign": null, "qtype": "max", "x_list": null, "constraints": [[2, 0, 3, "<", 8], [0, 1, 0, "<", 5], [2, 3, 1, "<", 21]]}'
p1
aS'{"sensitive": {}, "z": "Z", "goal": [3, 2, 4], "dual": false, "sign_str": null, "x": "x", "sign": null, "qtype": "max", "x_list": null, "constraints": [[1, 0, 1, "<", 6], [2, 3, 0, "<", 8], [1, 1, 2, "<", 10]]}'
p2
aS'{"sensitive": {}, "z": "Z", "goal": [4, 3, 2], "dual": false, "sign_str": null, "x": "x", "sign": null, "qtype": "max", "x_list": null, "constraints": [[1, 1, 1, "<", 16], [4, 1, 1, "<", 40], [2, 3, 1, "<", 30]]}'
p3
aS'{"sensitive": {}, "z": "Z", "goal": [3, 6, 2], "dual": false, "sign_str": null, "x": "x", "sign": null, "qtype": "max", "x_list": null, "constraints": [[1, 1, -1, "<", 6], [3, 4, 1, "<", 16], [-1, 4, 1, "<", 8]]}'
p4
aS'{"sensitive": {}, "z": "Z", "goal": [12, 8, 5], "dual": false, "sign_str": null, "x": "x", "sign": null, "qtype": "max", "x_list": null, "constraints": [[3, 2, 1, "<", 20], [1, 1, 1, "<", 11], [12, 4, 1, "<", 48]]}'
p5
aS'{"sensitive": {}, "z": "Z", "goal": [2, 5, 1], "dual": false, "sign_str": null, "x": "x", "sign": null, "qtype": "max", "x_list": null, "constraints": [[1, 0, 1, "<", 4], [0, 1, 0, "<", 6], [3, 2, 1, "<", 18]]}'
p6
aS'{"sensitive": {}, "z": "Z", "goal": [12, 8, 5], "dual": false, "sign_str": null, "x": "x", "sign": null, "qtype": "max", "x_list": null, "constraints": [[3, 2, 1, "<", 18], [1, 1, 1, "<", 11], [9, 4, 1, "<", 36]]}'
p7
aS'{"sensitive": {}, "z": "Z", "goal": [1, 3, 2], "dual": false, "sign_str": null, "x": "x", "sign": null, "qtype": "max", "x_list": null, "constraints": [[1, 2, -1, "<", 16], [1, 2, 1, "<", 32], [2, 3, 2, "<", 60]]}'
p8
aS'{"sensitive": {}, "z": "Z", "goal": [3, 5, 4], "dual": false, "sign_str": null, "x": "x", "sign": null, "qtype": "max", "x_list": null, "constraints": [[1, 0, 2, "<", 4], [0, 2, 1, "<", 12], [3, 2, 1, "<", 18]]}'
p9
aS'{"sensitive": {}, "z": "Z", "goal": [4, 0, 3], "dual": false, "sign_str": null, "x": "x", "sign": null, "qtype": "max", "x_list": null, "constraints": [[1, -1, 0, "<", 2], [2, 0, 1, "<", 5], [1, 1, 1, "<", 4]]}'
p10
aS'{"sensitive": {}, "z": "Z", "goal": [5, 0, 3], "dual": false, "sign_str": null, "x": "x", "sign": null, "qtype": "max", "x_list": null, "constraints": [[1, -1, 0, "<", 2], [2, 0, 1, "<", 5], [1, 1, 1, "<", 4]]}'
p11
aS'{"sensitive": {}, "z": "Z", "goal": [1, 2, 1], "dual": false, "sign_str": null, "x": "x", "sign": null, "qtype": "max", "x_list": null, "constraints": [[1, 1, -1, "<", 10], [-1, 2, 1, "<", 12], [0, 3, 2, "<", 20]]}'
p12
aS'{"sensitive": {}, "z": "Z", "goal": [1, 2, 1], "dual": false, "sign_str": null, "x": "x", "sign": null, "qtype": "max", "x_list": null, "constraints": [[1, 1, -1, "<", 10], [-1, 2, 1, "<", 12], [1, 3, 2, "<", 20]]}'
p13
aS'{"sensitive": {}, "z": "Z", "goal": [3, 5, 1], "dual": false, "sign_str": null, "x": "x", "sign": null, "qtype": "max", "x_list": null, "constraints": [[2, 3, -1, "<", 32], [3, 1, 1, "<", 30], [-1, 2, 3, "<", 22]]}'
p14
aS'{"sensitive": {}, "z": "Z", "goal": [10, 15, 3], "dual": false, "sign_str": null, "x": "x", "sign": null, "qtype": "max", "x_list": null, "constraints": [[1, 2, 0, "<", 10], [1, 1, 1, "<", 9], [0, 3, 1, "<", 15]]}'
p15
a.