(lp0
S'{"sensitive": {}, "z": "Z", "goal": [3, 5, 1], "dual": false, "sign_str": null, "x": "x", "sign": null, "qtype": "min", "x_list": null, "constraints": [[-3, 4, 1, ">", 9], [-1, 8, 4, ">", 16]]}'
p1
aS'{"sensitive": {}, "z": "Z", "goal": [2, 4, 2], "dual": false, "sign_str": null, "x": "x", "sign": null, "qtype": "min", "x_list": null, "constraints": [[-3, 8, -7, ">", 16], [-5, 1, -1, ">", 14]]}'
p2
aS'{"sensitive": {}, "z": "Z", "goal": [5, 5, 1], "dual": false, "sign_str": null, "x": "x", "sign": null, "qtype": "min", "x_list": null, "constraints": [[-1, 2, 6, ">", 11], [-6, 2, 3, ">", 7]]}'
p3
aS'{"sensitive": {}, "z": "Z", "goal": [6, 2, 4], "dual": false, "sign_str": null, "x": "x", "sign": null, "qtype": "min", "x_list": null, "constraints": [[-1, 0, 6, ">", 13], [-6, 3, 8, ">", 17]]}'
p4
aS'{"sensitive": {}, "z": "Z", "goal": [2, 6, 2], "dual": false, "sign_str": null, "x": "x", "sign": null, "qtype": "min", "x_list": null, "constraints": [[3, 8, -4, ">", 7], [-6, -8, 8, ">", 12]]}'
p5
aS'{"sensitive": {}, "z": "Z", "goal": [4, 7, 3], "dual": false, "sign_str": null, "x": "x", "sign": null, "qtype": "min", "x_list": null, "constraints": [[-3, 3, 8, ">", 11], [-4, -7, 2, ">", 4]]}'
p6
aS'{"sensitive": {}, "z": "Z", "goal": [8, 8, 9], "dual": false, "sign_str": null, "x": "x", "sign": null, "qtype": "min", "x_list": null, "constraints": [[4, -6, -8, ">", 10], [1, -7, 1, ">", 3]]}'
p7
aS'{"sensitive": {}, "z": "Z", "goal": [5, 8, 4], "dual": false, "sign_str": null, "x": "x", "sign": null, "qtype": "min", "x_list": null, "constraints": [[2, -2, 1, ">", 6], [0, -9, 1, ">", 9]]}'
p8
aS'{"sensitive": {}, "z": "Z", "goal": [1, 2, 9], "dual": false, "sign_str": null, "x": "x", "sign": null, "qtype": "min", "x_list": null, "constraints": [[-6, 8, 4, ">", 13], [-8, 4, 3, ">", 8]]}'
p9
aS'{"sensitive": {}, "z": "Z", "goal": [5, 5, 4], "dual": false, "sign_str": null, "x": "x", "sign": null, "qtype": "min", "x_list": null, "constraints": [[4, 4, -8, ">", 12], [2, -2, -6, ">", 7]]}'
p10
aS'{"sensitive": {}, "z": "Z", "goal": [2, 9, 8], "dual": false, "sign_str": null, "x": "x", "sign": null, "qtype": "min", "x_list": null, "constraints": [[6, 2, 3, ">", 15], [3, -1, -7, ">", 8]]}'
p11
aS'{"sensitive": {}, "z": "Z", "goal": [7, 9, 8], "dual": false, "sign_str": null, "x": "x", "sign": null, "qtype": "min", "x_list": null, "constraints": [[-7, -1, 1, ">", 13], [-1, 2, 2, ">", 14]]}'
p12
aS'{"sensitive": {}, "z": "Z", "goal": [2, 1, 7], "dual": false, "sign_str": null, "x": "x", "sign": null, "qtype": "min", "x_list": null, "constraints": [[2, -3, -2, ">", 7], [4, -2, 5, ">", 13]]}'
p13
aS'{"sensitive": {}, "z": "Z", "goal": [5, 2, 8], "dual": false, "sign_str": null, "x": "x", "sign": null, "qtype": "min", "x_list": null, "constraints": [[-1, 6, 8, ">", 18], [-4, 2, 1, ">", 15]]}'
p14
aS'{"sensitive": {}, "z": "Z", "goal": [9, 9, 3], "dual": false, "sign_str": null, "x": "x", "sign": null, "qtype": "min", "x_list": null, "constraints": [[4, -3, 4, ">", 6], [5, 3, 8, ">", 8]]}'
p15
aS'{"sensitive": {}, "z": "Z", "goal": [2, 1, 4], "dual": false, "sign_str": null, "x": "x", "sign": null, "qtype": "min", "x_list": null, "constraints": [[-1, -1, 2, ">", 10], [-3, -6, 8, ">", 12]]}'
p16
aS'{"sensitive": {}, "z": "Z", "goal": [5, 2, 8], "dual": false, "sign_str": null, "x": "x", "sign": null, "qtype": "min", "x_list": null, "constraints": [[2, 3, 8, ">", 18], [-9, 1, -2, ">", 17]]}'
p17
aS'{"sensitive": {}, "z": "Z", "goal": [8, 9, 4], "dual": false, "sign_str": null, "x": "x", "sign": null, "qtype": "min", "x_list": null, "constraints": [[3, 1, -2, ">", 4], [1, -6, -3, ">", 4]]}'
p18
aS'{"sensitive": {}, "z": "Z", "goal": [6, 2, 5], "dual": false, "sign_str": null, "x": "x", "sign": null, "qtype": "min", "x_list": null, "constraints": [[8, 6, -2, ">", 16], [2, 3, -4, ">", 11]]}'
p19
aS'{"sensitive": {}, "z": "Z", "goal": [3, 6, 3], "dual": false, "sign_str": null, "x": "x", "sign": null, "qtype": "min", "x_list": null, "constraints": [[6, 6, 3, ">", 18], [1, -3, -3, ">", 9]]}'
p20
aS'{"sensitive": {}, "z": "Z", "goal": [8, 9, 1], "dual": false, "sign_str": null, "x": "x", "sign": null, "qtype": "min", "x_list": null, "constraints": [[-3, 4, 3, ">", 18], [2, -2, -1, ">", 9]]}'
p21
aS'{"sensitive": {}, "z": "Z", "goal": [3, 2, 1], "dual": false, "sign_str": null, "x": "x", "sign": null, "qtype": "min", "x_list": null, "constraints": [[-4, -9, 4, ">", 8], [-3, -6, 8, ">", 11]]}'
p22
aS'{"sensitive": {}, "z": "Z", "goal": [5, 3, 4], "dual": false, "sign_str": null, "x": "x", "sign": null, "qtype": "min", "x_list": null, "constraints": [[1, 8, -3, ">", 11], [1, 4, -8, ">", 9]]}'
p23
aS'{"sensitive": {}, "z": "Z", "goal": [9, 6, 3], "dual": false, "sign_str": null, "x": "x", "sign": null, "qtype": "min", "x_list": null, "constraints": [[4, -2, 0, ">", 16], [6, 1, 3, ">", 19]]}'
p24
aS'{"sensitive": {}, "z": "Z", "goal": [2, 7, 2], "dual": false, "sign_str": null, "x": "x", "sign": null, "qtype": "min", "x_list": null, "constraints": [[8, 4, -4, ">", 16], [3, -6, -3, ">", 11]]}'
p25
aS'{"sensitive": {}, "z": "Z", "goal": [8, 6, 3], "dual": false, "sign_str": null, "x": "x", "sign": null, "qtype": "min", "x_list": null, "constraints": [[-2, 1, -8, ">", 2], [7, 7, -7, ">", 8]]}'
p26
aS'{"sensitive": {}, "z": "Z", "goal": [9, 4, 1], "dual": false, "sign_str": null, "x": "x", "sign": null, "qtype": "min", "x_list": null, "constraints": [[-2, 0, 2, ">", 2], [1, -7, 8, ">", 7]]}'
p27
aS'{"sensitive": {}, "z": "Z", "goal": [8, 1, 4], "dual": false, "sign_str": null, "x": "x", "sign": null, "qtype": "min", "x_list": null, "constraints": [[-1, 1, 2, ">", 2], [3, -1, 6, ">", 4]]}'
p28
aS'{"sensitive": {}, "z": "Z", "goal": [8, 8, 2], "dual": false, "sign_str": null, "x": "x", "sign": null, "qtype": "min", "x_list": null, "constraints": [[-7, 2, 8, ">", 5], [-7, 3, 6, ">", 5]]}'
p29
aS'{"sensitive": {}, "z": "Z", "goal": [2, 2, 2], "dual": false, "sign_str": null, "x": "x", "sign": null, "qtype": "min", "x_list": null, "constraints": [[-5, 6, -2, ">", 13], [6, -6, -3, ">", 6]]}'
p30
aS'{"sensitive": {}, "z": "Z", "goal": [3, 5, 1], "dual": false, "sign_str": null, "x": "x", "sign": null, "qtype": "min", "x_list": null, "constraints": [[5, -4, 2, ">", 5], [1, -4, 0, ">", 17]]}'
p31
aS'{"sensitive": {}, "z": "Z", "goal": [3, 4, 1], "dual": false, "sign_str": null, "x": "x", "sign": null, "qtype": "min", "x_list": null, "constraints": [[-3, 1, -8, ">", 2], [-3, 8, -2, ">", 8]]}'
p32
aS'{"sensitive": {}, "z": "Z", "goal": [9, 5, 1], "dual": false, "sign_str": null, "x": "x", "sign": null, "qtype": "min", "x_list": null, "constraints": [[8, 6, -3, ">", 2], [-1, -7, 1, ">", 3]]}'
p33
aS'{"sensitive": {}, "z": "Z", "goal": [5, 8, 8], "dual": false, "sign_str": null, "x": "x", "sign": null, "qtype": "min", "x_list": null, "constraints": [[4, -8, -6, ">", 18], [2, -5, 1, ">", 15]]}'
p34
aS'{"sensitive": {}, "z": "Z", "goal": [3, 9, 3], "dual": false, "sign_str": null, "x": "x", "sign": null, "qtype": "min", "x_list": null, "constraints": [[5, 0, -6, ">", 10], [-2, 0, 3, ">", 7]]}'
p35
aS'{"sensitive": {}, "z": "Z", "goal": [5, 9, 1], "dual": false, "sign_str": null, "x": "x", "sign": null, "qtype": "min", "x_list": null, "constraints": [[-8, 0, 4, ">", 13], [-1, -6, 8, ">", 14]]}'
p36
aS'{"sensitive": {}, "z": "Z", "goal": [6, 1, 8], "dual": false, "sign_str": null, "x": "x", "sign": null, "qtype": "min", "x_list": null, "constraints": [[-2, 1, -6, ">", 6], [7, 2, -9, ">", 7]]}'
p37
aS'{"sensitive": {}, "z": "Z", "goal": [6, 8, 8], "dual": false, "sign_str": null, "x": "x", "sign": null, "qtype": "min", "x_list": null, "constraints": [[0, -2, 2, ">", 6], [4, -6, 3, ">", 5]]}'
p38
aS'{"sensitive": {}, "z": "Z", "goal": [8, 2, 5], "dual": false, "sign_str": null, "x": "x", "sign": null, "qtype": "min", "x_list": null, "constraints": [[6, -4, -3, ">", 6], [3, -8, 1, ">", 4]]}'
p39
aS'{"sensitive": {}, "z": "Z", "goal": [8, 9, 3], "dual": false, "sign_str": null, "x": "x", "sign": null, "qtype": "min", "x_list": null, "constraints": [[8, 6, 6, ">", 1], [8, 2, 0, ">", 6]]}'
p40
aS'{"sensitive": {}, "z": "Z", "goal": [1, 4, 3], "dual": false, "sign_str": null, "x": "x", "sign": null, "qtype": "min", "x_list": null, "constraints": [[1, 1, 1, ">", 3], [-2, -1, 1, ">", 2]]}'
p41
aS'{"sensitive": {}, "z": "Z", "goal": [1, 4, 0, 3], "dual": false, "sign_str": null, "x": "x", "sign": null, "qtype": "min", "x_list": null, "constraints": [[1, 1, -1, 1, ">", 3], [-2, -1, 4, 1, ">", 2]]}'
p42
aS'{"sensitive": {}, "z": "Z", "goal": [2, 3, 4], "dual": false, "sign_str": null, "x": "x", "sign": null, "qtype": "min", "x_list": null, "constraints": [[1, -2, 1, ">", 3], [2, -1, 3, ">", 4]]}'
p43
aS'{"sensitive": {}, "z": "Z", "goal": [2, 3, 5, 6], "dual": false, "sign_str": null, "x": "x", "sign": null, "qtype": "min", "x_list": null, "constraints": [[1, 2, 3, 1, ">", 2], [2, -1, 1, -3, ">", 3]]}'
p44
aS'{"sensitive": {}, "z": "Z", "goal": [160, 50], "dual": false, "sign_str": null, "x": "x", "sign": null, "qtype": "min", "x_list": null, "constraints": [[4, 1, ">", 2], [1, 1, ">", 2], [5, 1, ">", 4]]}'
p45
aS'{"sensitive": {}, "z": "Z", "goal": [3, 9], "dual": false, "sign_str": null, "x": "x", "sign": null, "qtype": "min", "x_list": null, "constraints": [[1, 1, ">", 2], [1, 4, ">", 3], [1, 7, ">", 3]]}'
p46
aS'{"sensitive": {}, "z": "Z", "goal": [3, 2, 2, 5], "dual": false, "sign_str": null, "x": "x", "sign": null, "qtype": "min", "x_list": null, "constraints": [[2, 1, 1, 3, ">", 12], [1, 3, 2, 1, ">", 18]]}'
p47
aS'{"sensitive": {}, "z": "Z", "goal": [3, 2, 1, 4], "dual": false, "sign_str": null, "x": "x", "sign": null, "qtype": "min", "x_list": null, "constraints": [[2, -1, 1, -2, ">", 8], [4, 1, 4, 6, ">", 16]]}'
p48
aS'{"sensitive": {}, "z": "Z", "goal": [1, 2, 4, 1], "dual": false, "sign_str": null, "x": "x", "sign": null, "qtype": "min", "x_list": null, "constraints": [[1, 2, 3, 3, ">", 21], [2, 1, 1, 2, ">", 30]]}'
p49
aS'{"sensitive": {}, "z": "Z", "goal": [3, 4, 6], "dual": false, "sign_str": null, "x": "x", "sign": null, "qtype": "min", "x_list": null, "constraints": [[1, 2, 1, ">", 4], [2, -1, 3, ">", 5]]}'
p50
aS'{"sensitive": {}, "z": "Z", "goal": [4, 4, 5], "dual": false, "sign_str": null, "x": "x", "sign": null, "qtype": "min", "x_list": null, "constraints": [[1, 2, 2, ">", 6], [2, 1, 4, ">", 8], [4, -2, 3, ">", 12]]}'
p51
aS'{"sensitive": {}, "z": "Z", "goal": [7, 8, 9], "dual": false, "sign_str": null, "x": "x", "sign": null, "qtype": "min", "x_list": null, "constraints": [[1, 2, 3, ">", 48], [0, 2, 1, ">", 20]]}'
p52
aS'{"sensitive": {}, "z": "Z", "goal": [2, 3, 3], "dual": false, "sign_str": null, "x": "x", "sign": null, "qtype": "min", "x_list": null, "constraints": [[1, 1, 3, ">", 4], [2, -1, 1, ">", 3]]}'
p53
aS'{"sensitive": {}, "z": "Z", "goal": [1, 1, 2], "dual": false, "sign_str": null, "x": "x", "sign": null, "qtype": "min", "x_list": null, "constraints": [[1, 2, 1, ">", 4], [2, 1, 1, ">", 6]]}'
p54
aS'{"sensitive": {}, "z": "Z", "goal": [3, 1, 1], "dual": false, "sign_str": null, "x": "x", "sign": null, "qtype": "min", "x_list": null, "constraints": [[2, 1, 2, ">", 12], [1, 2, 1, ">", 9]]}'
p55
aS'{"sensitive": {}, "z": "Z", "goal": [1, 1, 2], "dual": false, "sign_str": null, "x": "x", "sign": null, "qtype": "min", "x_list": null, "constraints": [[2, 1, 2, ">", 4], [1, 7, 1, ">", 7]]}'
p56
aS'{"sensitive": {}, "z": "Z", "goal": [4, 1, 3], "dual": false, "sign_str": null, "x": "x", "sign": null, "qtype": "min", "x_list": null, "constraints": [[7, 1, 2, ">", 6], [4, 2, 3, ">", 8]]}'
p57
aS'{"sensitive": {}, "z": "Z", "goal": [2, 3, 4], "dual": false, "sign_str": null, "x": "x", "sign": null, "qtype": "min", "x_list": null, "constraints": [[1, 2, 1, ">", 3], [2, -1, 3, ">", 4]]}'
p58
aS'{"sensitive": {}, "z": "Z", "goal": [15, 24, 5], "dual": false, "sign_str": null, "x": "x", "sign": null, "qtype": "min", "x_list": null, "constraints": [[0, 6, 1, ">", 2], [5, 2, 1, ">", 1]]}'
p59
aS'{"sensitive": {}, "z": "Z", "goal": [15, 24, 5], "dual": false, "sign_str": null, "x": "x", "sign": null, "qtype": "min", "x_list": null, "constraints": [[5, 8, 2, ">", 6], [5, 2, 1, ">", 4]]}'
p60
aS'{"sensitive": {}, "z": "Z", "goal": [5, 6, 3], "dual": false, "sign_str": null, "x": "x", "sign": null, "qtype": "min", "x_list": null, "constraints": [[2, 1, 1, ">", 6], [2, 1, 2, ">", 10]]}'
p61
aS'{"sensitive": {}, "z": "Z", "goal": [24, 15, 5], "dual": false, "sign_str": null, "x": "x", "sign": null, "qtype": "min", "x_list": null, "constraints": [[6, 0, 1, ">", 4], [2, 5, 1, ">", 2]]}'
p62
aS'{"sensitive": {}, "z": "Z", "goal": [2, 3, 1, 4], "dual": false, "sign_str": null, "x": "x", "sign": null, "qtype": "min", "x_list": null, "constraints": [[-1, 2, 3, -6, ">", 9], [2, 4, 1, 2, ">", 7]]}'
p63
aS'{"sensitive": {}, "z": "Z", "goal": [3, 2, 1, 4], "dual": false, "sign_str": null, "x": "x", "sign": null, "qtype": "min", "x_list": null, "constraints": [[2, -1, 3, -6, ">", 6], [4, 2, 1, 2, ">", 7]]}'
p64
aS'{"sensitive": {}, "z": "Z", "goal": [3, 4, 6], "dual": false, "sign_str": null, "x": "x", "sign": null, "qtype": "min", "x_list": null, "constraints": [[1, 2, 3, ">", 5], [1, 1, 1, ">", 3]]}'
p65
aS'{"sensitive": {}, "z": "Z", "goal": [2, 3, 1], "dual": false, "sign_str": null, "x": "x", "sign": null, "qtype": "min", "x_list": null, "constraints": [[5, 1, 2, ">", 10], [1, 1, 2, ">", 5]]}'
p66
aS'{"sensitive": {}, "z": "Z", "goal": [3, 2, 4], "dual": false, "sign_str": null, "x": "x", "sign": null, "qtype": "min", "x_list": null, "constraints": [[1, 1, 2, ">", 4], [2, 1, 3, ">", 5]]}'
p67
aS'{"sensitive": {}, "z": "Z", "goal": [4, 2, 3], "dual": false, "sign_str": null, "x": "x", "sign": null, "qtype": "min", "x_list": null, "constraints": [[4, 2, 3, ">", 12], [3, 1, 2, ">", 10]]}'
p68
aS'{"sensitive": {}, "z": "Z", "goal": [1, 2, 3], "dual": false, "sign_str": null, "x": "x", "sign": null, "qtype": "min", "x_list": null, "constraints": [[3, 1, 5, ">", 10], [1, 3, 2, ">", 12]]}'
p69
aS'{"sensitive": {}, "z": "Z", "goal": [4, 2, 3], "dual": false, "sign_str": null, "x": "x", "sign": null, "qtype": "min", "x_list": null, "constraints": [[2, 3, 1, ">", 12], [1, 2, 4, ">", 10]]}'
p70
aS'{"sensitive": {}, "z": "Z", "goal": [5, 2, 4], "dual": false, "sign_str": null, "x": "x", "sign": null, "qtype": "min", "x_list": null, "constraints": [[3, 1, 2, ">", 4], [6, 3, 2, ">", 10]]}'
p71
aS'{"sensitive": {}, "z": "Z", "goal": [1, 3, 2], "dual": false, "sign_str": null, "x": "x", "sign": null, "qtype": "min", "x_list": null, "constraints": [[1, -2, 3, ">", 4], [3, 1, -2, ">", 6]]}'
p72
aS'{"sensitive": {}, "z": "Z", "goal": [1, 2, 3], "dual": false, "sign_str": null, "x": "x", "sign": null, "qtype": "min", "x_list": null, "constraints": [[1, 2, -1, ">", 3], [2, 1, 1, ">", 4]]}'
p73
aS'{"sensitive": {}, "z": "Z", "goal": [2, 3, 5], "dual": false, "sign_str": null, "x": "x", "sign": null, "qtype": "min", "x_list": null, "constraints": [[2, 1, 2, ">", 8], [1, 2, -1, ">", 6]]}'
p74
aS'{"sensitive": {}, "z": "Z", "goal": [3, 4, 5], "dual": false, "sign_str": null, "x": "x", "sign": null, "qtype": "min", "x_list": null, "constraints": [[1, 2, 1, ">", 3], [2, -1, 3, ">", 4]]}'
p75
aS'{"sensitive": {}, "z": "Z", "goal": [3, 4, 5], "dual": false, "sign_str": null, "x": "x", "sign": null, "qtype": "min", "x_list": null, "constraints": [[1, -2, 1, ">", 3], [2, -1, 3, ">", 4]]}'
p76
aS'{"sensitive": {}, "z": "Z", "goal": [1, 2, 3], "dual": false, "sign_str": null, "x": "x", "sign": null, "qtype": "min", "x_list": null, "constraints": [[1, 3, 2, ">", 3], [2, 1, 3, ">", 2]]}'
p77
aS'{"sensitive": {}, "z": "Z", "goal": [1, 2, 3], "dual": false, "sign_str": null, "x": "x", "sign": null, "qtype": "min", "x_list": null, "constraints": [[1, 3, 2, ">", 3], [2, 1, 3, ">", 2]]}'
p78
aS'{"sensitive": {}, "z": "Z", "goal": [6, 4, 7], "dual": false, "sign_str": null, "x": "x", "sign": null, "qtype": "min", "x_list": null, "constraints": [[1, 0, 3, ">", 2], [3, 2, 1, ">", 4], [-1, 2, 2, ">", 5]]}'
p79
aS'{"sensitive": {}, "z": "Z", "goal": [1, 2, 3], "dual": false, "sign_str": null, "x": "x", "sign": null, "qtype": "min", "x_list": null, "constraints": [[1, 1, 2, ">", 12], [2, -1, 1, ">", 10], [2, 4, 2, ">", 15]]}'
p80
aS'{"sensitive": {}, "z": "Z", "goal": [3, 2, 1], "dual": false, "sign_str": null, "x": "x", "sign": null, "qtype": "min", "x_list": null, "constraints": [[1, -1, 1, ">", 2], [-1, 2, 0, ">", 3], [2, 0, 1, ">", 4]]}'
p81
aS'{"sensitive": {}, "z": "Z", "goal": [3, 5, 7], "dual": false, "sign_str": null, "x": "x", "sign": null, "qtype": "min", "x_list": null, "constraints": [[2, -1, 1, ">", 14], [1, 2, 1, "<", 13], [0, 2, -1, ">", 4]]}'
p82
a.