(lp0
S'{"sensitive": {}, "z": "Z", "goal": [1, 7, 1, 4], "dual": false, "sign_str": null, "x": "x", "sign": null, "qtype": "min", "x_list": null, "constraints": [[-2, -8, -2, 2, ">", 14], [8, 2, -2, -6, ">", 6], [4, -9, 0, -3, ">", 12]]}'
p1
aS'{"sensitive": {}, "z": "Z", "goal": [1, 3, 9, 5], "dual": false, "sign_str": null, "x": "x", "sign": null, "qtype": "min", "x_list": null, "constraints": [[6, -2, -1, 4, ">", 19], [3, 3, 0, 7, ">", 11], [1, -1, -3, -9, ">", 4]]}'
p2
aS'{"sensitive": {}, "z": "Z", "goal": [9, 5, 2, 1], "dual": false, "sign_str": null, "x": "x", "sign": null, "qtype": "min", "x_list": null, "constraints": [[2, -5, -4, 8, ">", 18], [-1, -5, -5, 4, ">", 10], [1, 5, -3, 0, ">", 4]]}'
p3
aS'{"sensitive": {}, "z": "Z", "goal": [2, 7, 4, 8], "dual": false, "sign_str": null, "x": "x", "sign": null, "qtype": "min", "x_list": null, "constraints": [[0, -2, 2, -4, ">", 18], [6, 4, -4, -8, ">", 3], [-3, -3, 4, 4, ">", 18]]}'
p4
aS'{"sensitive": {}, "z": "Z", "goal": [7, 4, 8, 6], "dual": false, "sign_str": null, "x": "x", "sign": null, "qtype": "min", "x_list": null, "constraints": [[0, 1, -4, -5, ">", 12], [1, 0, 1, 2, ">", 5], [1, 6, -6, 4, ">", 18]]}'
p5
aS'{"sensitive": {}, "z": "Z", "goal": [3, 4, 5, 3], "dual": false, "sign_str": null, "x": "x", "sign": null, "qtype": "min", "x_list": null, "constraints": [[2, -4, -2, 0, ">", 8], [1, -6, 2, 6, ">", 10], [3, -6, 1, 4, ">", 13]]}'
p6
aS'{"sensitive": {}, "z": "Z", "goal": [4, 6, 5, 2], "dual": false, "sign_str": null, "x": "x", "sign": null, "qtype": "min", "x_list": null, "constraints": [[2, -3, -2, 2, ">", 10], [-6, 0, 5, 0, ">", 1], [-1, -7, -2, 4, ">", 12]]}'
p7
aS'{"sensitive": {}, "z": "Z", "goal": [6, 2, 9, 6], "dual": false, "sign_str": null, "x": "x", "sign": null, "qtype": "min", "x_list": null, "constraints": [[0, -3, -3, 8, ">", 5], [8, -9, 5, 8, ">", 10], [6, -8, 4, 8, ">", 10]]}'
p8
aS'{"sensitive": {}, "z": "Z", "goal": [6, 4, 4, 8], "dual": false, "sign_str": null, "x": "x", "sign": null, "qtype": "min", "x_list": null, "constraints": [[-3, 3, 4, 1, ">", 14], [6, 0, -8, -4, ">", 5], [-9, 4, 6, -3, ">", 9]]}'
p9
aS'{"sensitive": {}, "z": "Z", "goal": [6, 3, 5, 2], "dual": false, "sign_str": null, "x": "x", "sign": null, "qtype": "min", "x_list": null, "constraints": [[0, 2, -6, 0, ">", 8], [3, 1, -7, 1, ">", 17], [3, -8, 6, 0, ">", 6]]}'
p10
aS'{"sensitive": {}, "z": "Z", "goal": [9, 3, 3, 6], "dual": false, "sign_str": null, "x": "x", "sign": null, "qtype": "min", "x_list": null, "constraints": [[-7, 4, -3, -1, ">", 2], [-3, 8, -3, 4, ">", 10], [-3, 0, 3, -1, ">", 12]]}'
p11
aS'{"sensitive": {}, "z": "Z", "goal": [8, 2, 2, 3], "dual": false, "sign_str": null, "x": "x", "sign": null, "qtype": "min", "x_list": null, "constraints": [[-3, 1, 2, -7, ">", 8], [-3, -5, 1, -1, ">", 6], [-5, -4, 6, -9, ">", 9]]}'
p12
aS'{"sensitive": {}, "z": "Z", "goal": [9, 1, 6, 1], "dual": false, "sign_str": null, "x": "x", "sign": null, "qtype": "min", "x_list": null, "constraints": [[2, 1, -3, -4, ">", 7], [7, 6, -1, 4, ">", 18], [0, 3, -5, -5, ">", 15]]}'
p13
aS'{"sensitive": {}, "z": "Z", "goal": [3, 9, 1, 4], "dual": false, "sign_str": null, "x": "x", "sign": null, "qtype": "min", "x_list": null, "constraints": [[3, -2, 0, 6, ">", 6], [0, -4, 1, -3, ">", 2], [6, 5, 2, -4, ">", 14]]}'
p14
aS'{"sensitive": {}, "z": "Z", "goal": [2, 7, 5, 9], "dual": false, "sign_str": null, "x": "x", "sign": null, "qtype": "min", "x_list": null, "constraints": [[4, 5, 4, 6, ">", 16], [3, -4, 6, 5, ">", 11], [-1, -2, 1, 0, ">", 7]]}'
p15
aS'{"sensitive": {}, "z": "Z", "goal": [8, 5, 9, 5], "dual": false, "sign_str": null, "x": "x", "sign": null, "qtype": "min", "x_list": null, "constraints": [[-3, -9, -9, 3, ">", 13], [-1, -4, 0, 2, ">", 10], [1, 1, -1, 6, ">", 18]]}'
p16
aS'{"sensitive": {}, "z": "Z", "goal": [8, 7, 1, 4], "dual": false, "sign_str": null, "x": "x", "sign": null, "qtype": "min", "x_list": null, "constraints": [[-6, 3, -4, 3, ">", 18], [-7, -2, -2, 1, ">", 8], [2, 1, -7, 0, ">", 6]]}'
p17
aS'{"sensitive": {}, "z": "Z", "goal": [9, 6, 2, 1], "dual": false, "sign_str": null, "x": "x", "sign": null, "qtype": "min", "x_list": null, "constraints": [[3, -7, 0, -2, ">", 6], [6, 2, 2, -9, ">", 17], [-9, -3, 4, -8, ">", 13]]}'
p18
aS'{"sensitive": {}, "z": "Z", "goal": [6, 1, 4, 6], "dual": false, "sign_str": null, "x": "x", "sign": null, "qtype": "min", "x_list": null, "constraints": [[-6, 1, -9, -1, ">", 8], [-3, 4, -4, 2, ">", 12], [2, 2, -3, 8, ">", 12]]}'
p19
aS'{"sensitive": {}, "z": "Z", "goal": [7, 1, 1, 3], "dual": false, "sign_str": null, "x": "x", "sign": null, "qtype": "min", "x_list": null, "constraints": [[-7, 4, -6, 0, ">", 16], [4, -4, 4, 6, ">", 10], [5, -4, 8, 3, ">", 1]]}'
p20
aS'{"sensitive": {}, "z": "Z", "goal": [4, 3, 1, 7], "dual": false, "sign_str": null, "x": "x", "sign": null, "qtype": "min", "x_list": null, "constraints": [[2, 2, 0, -2, ">", 3], [3, 8, 5, 4, ">", 7], [-8, 6, 5, 2, ">", 3]]}'
p21
aS'{"sensitive": {}, "z": "Z", "goal": [7, 7, 9, 9], "dual": false, "sign_str": null, "x": "x", "sign": null, "qtype": "min", "x_list": null, "constraints": [[6, 8, 4, -6, ">", 10], [4, 4, 1, -3, ">", 1], [4, 4, 0, -5, ">", 10]]}'
p22
aS'{"sensitive": {}, "z": "Z", "goal": [3, 6, 1, 9], "dual": false, "sign_str": null, "x": "x", "sign": null, "qtype": "min", "x_list": null, "constraints": [[1, -2, 1, -5, ">", 14], [-5, 4, 4, -5, ">", 14], [2, -3, -1, -7, ">", 13]]}'
p23
aS'{"sensitive": {}, "z": "Z", "goal": [2, 1, 8, 4], "dual": false, "sign_str": null, "x": "x", "sign": null, "qtype": "min", "x_list": null, "constraints": [[-5, -4, 4, 4, ">", 10], [-1, -8, 2, 0, ">", 7], [7, 4, -8, 8, ">", 10]]}'
p24
aS'{"sensitive": {}, "z": "Z", "goal": [1, 3, 3, 6], "dual": false, "sign_str": null, "x": "x", "sign": null, "qtype": "min", "x_list": null, "constraints": [[1, -5, 0, -1, ">", 8], [-1, -5, 2, -8, ">", 18], [-2, -7, 1, -5, ">", 13]]}'
p25
aS'{"sensitive": {}, "z": "Z", "goal": [9, 1, 6, 1], "dual": false, "sign_str": null, "x": "x", "sign": null, "qtype": "min", "x_list": null, "constraints": [[-2, 4, -8, -2, ">", 17], [-6, 0, 0, 3, ">", 15], [7, 6, 7, -6, ">", 15]]}'
p26
aS'{"sensitive": {}, "z": "Z", "goal": [5, 2, 4, 6], "dual": false, "sign_str": null, "x": "x", "sign": null, "qtype": "min", "x_list": null, "constraints": [[-4, 6, 6, -4, ">", 14], [-4, -3, 0, 4, ">", 2], [5, -3, 3, 1, ">", 2]]}'
p27
aS'{"sensitive": {}, "z": "Z", "goal": [3, 1, 6, 7], "dual": false, "sign_str": null, "x": "x", "sign": null, "qtype": "min", "x_list": null, "constraints": [[6, 6, -6, -1, ">", 18], [7, 3, -9, -7, ">", 4], [0, -2, 6, -3, ">", 12]]}'
p28
aS'{"sensitive": {}, "z": "Z", "goal": [2, 5, 3, 4], "dual": false, "sign_str": null, "x": "x", "sign": null, "qtype": "min", "x_list": null, "constraints": [[0, 5, 3, -5, ">", 3], [6, 3, 5, 3, ">", 17], [6, 2, 2, -1, ">", 16]]}'
p29
aS'{"sensitive": {}, "z": "Z", "goal": [5, 7, 3, 1], "dual": false, "sign_str": null, "x": "x", "sign": null, "qtype": "min", "x_list": null, "constraints": [[-4, 0, 2, 1, ">", 13], [-9, -7, 4, 7, ">", 4], [-9, 1, 1, 0, ">", 7]]}'
p30
aS'{"sensitive": {}, "z": "Z", "goal": [6, 8, 6, 6], "dual": false, "sign_str": null, "x": "x", "sign": null, "qtype": "min", "x_list": null, "constraints": [[0, 6, -8, 8, ">", 12], [-7, 1, -6, 0, ">", 5], [6, 1, -7, 2, ">", 5]]}'
p31
aS'{"sensitive": {}, "z": "Z", "goal": [1, 4, 2, 8], "dual": false, "sign_str": null, "x": "x", "sign": null, "qtype": "min", "x_list": null, "constraints": [[-1, 1, 0, -3, ">", 2], [7, 0, 4, -7, ">", 8], [-7, 8, 4, -7, ">", 18]]}'
p32
aS'{"sensitive": {}, "z": "Z", "goal": [8, 8, 1, 2], "dual": false, "sign_str": null, "x": "x", "sign": null, "qtype": "min", "x_list": null, "constraints": [[-6, 5, 8, -8, ">", 18], [-1, -6, 4, -8, ">", 3], [-2, 5, 0, 4, ">", 15]]}'
p33
aS'{"sensitive": {}, "z": "Z", "goal": [4, 2, 3, 8], "dual": false, "sign_str": null, "x": "x", "sign": null, "qtype": "min", "x_list": null, "constraints": [[-1, -4, 3, 1, ">", 3], [-2, -3, 6, 8, ">", 10], [-6, -4, 0, 4, ">", 3]]}'
p34
aS'{"sensitive": {}, "z": "Z", "goal": [9, 7, 3, 3], "dual": false, "sign_str": null, "x": "x", "sign": null, "qtype": "min", "x_list": null, "constraints": [[-2, -9, 0, 3, ">", 4], [1, 1, -1, 0, ">", 2], [6, 2, -4, 6, ">", 18]]}'
p35
aS'{"sensitive": {}, "z": "Z", "goal": [8, 6, 4, 5], "dual": false, "sign_str": null, "x": "x", "sign": null, "qtype": "min", "x_list": null, "constraints": [[-5, -2, 4, 2, ">", 6], [-6, 4, 4, -2, ">", 19], [-9, 2, 0, -4, ">", 13]]}'
p36
aS'{"sensitive": {}, "z": "Z", "goal": [2, 6, 8, 6], "dual": false, "sign_str": null, "x": "x", "sign": null, "qtype": "min", "x_list": null, "constraints": [[6, 1, 6, 3, ">", 10], [3, 5, -8, 0, ">", 4], [0, 0, 0, 3, ">", 4]]}'
p37
aS'{"sensitive": {}, "z": "Z", "goal": [2, 7, 9, 2], "dual": false, "sign_str": null, "x": "x", "sign": null, "qtype": "min", "x_list": null, "constraints": [[-1, 3, -8, 0, ">", 7], [2, 1, 6, 2, ">", 10], [-2, -3, -4, 4, ">", 2]]}'
p38
aS'{"sensitive": {}, "z": "Z", "goal": [2, 7, 5, 2], "dual": false, "sign_str": null, "x": "x", "sign": null, "qtype": "min", "x_list": null, "constraints": [[-1, 0, 2, -2, ">", 4], [1, 1, -1, -5, ">", 11], [4, 1, 3, -8, ">", 3]]}'
p39
aS'{"sensitive": {}, "z": "Z", "goal": [9, 4, 5, 2], "dual": false, "sign_str": null, "x": "x", "sign": null, "qtype": "min", "x_list": null, "constraints": [[-6, 6, -3, 3, ">", 12], [2, -8, 6, 0, ">", 10], [-9, -2, -4, 4, ">", 5]]}'
p40
aS'{"sensitive": {}, "z": "Z", "goal": [2, 2, 1], "dual": false, "sign_str": null, "x": "x", "sign": null, "qtype": "min", "x_list": null, "constraints": [[2, 2, 4, ">", 16], [1, 2, 1, ">", 10], [3, 2, 0, ">", 8]]}'
p41
aS'{"sensitive": {}, "z": "Z", "goal": [9, 12, 15], "dual": false, "sign_str": null, "x": "x", "sign": null, "qtype": "min", "x_list": null, "constraints": [[2, 2, 1, ">", 10], [2, 3, 1, ">", 12], [1, 1, 5, ">", 14]]}'
p42
aS'{"sensitive": {}, "z": "Z", "goal": [2, 3, 5], "dual": false, "sign_str": null, "x": "x", "sign": null, "qtype": "min", "x_list": null, "constraints": [[-1, 2, 1, ">", 3], [2, -1, 3, ">", 4]]}'
p43
aS'{"sensitive": {}, "z": "Z", "goal": [3, 2, 4], "dual": false, "sign_str": null, "x": "x", "sign": null, "qtype": "min", "x_list": null, "constraints": [[1, -1, 1, ">", 2], [-1, 2, 0, ">", 3], [2, 0, 1, ">", 4]]}'
p44
a.