(lp0
S'{"sensitive": {}, "z": "Z", "goal": [-9, -3, 1, -5], "dual": true, "sign_str": null, "x": "x", "sign": [">", "=", "<", ">"], "qtype": "min", "x_list": null, "constraints": [[-4, 5, -2, -8, "<", 34], [-6, -7, -9, 4, ">", 14], [7, -9, -5, 8, "=", 25]]}'
p1
aS'{"sensitive": {}, "z": "Z", "goal": [-2, -6, 0, -3], "dual": true, "sign_str": null, "x": "x", "sign": ["<", "=", ">", "="], "qtype": "min", "x_list": null, "constraints": [[3, -4, -9, 6, "=", 19], [1, 5, 1, 2, ">", 19], [-4, -3, 8, 7, "<", 37]]}'
p2
aS'{"sensitive": {}, "z": "Z", "goal": [-4, -6, -1, 6], "dual": true, "sign_str": null, "x": "x", "sign": ["=", ">", "=", "<"], "qtype": "min", "x_list": null, "constraints": [[1, -7, -9, -3, ">", 23], [7, 6, 0, 1, "<", 10], [-1, 0, -3, 2, "=", 3]]}'
p3
aS'{"sensitive": {}, "z": "Z", "goal": [-8, -7, 1, -1], "dual": true, "sign_str": null, "x": "x", "sign": ["<", "=", "=", ">"], "qtype": "min", "x_list": null, "constraints": [[5, -1, -4, -8, "<", 21], [2, 6, 2, 4, "=", 38], [-3, 8, -7, -2, ">", 22]]}'
p4
aS'{"sensitive": {}, "z": "Z", "goal": [-8, -2, -9, -2], "dual": true, "sign_str": null, "x": "x", "sign": ["=", "<", ">", ">"], "qtype": "min", "x_list": null, "constraints": [[-6, -6, -6, -5, ">", 22], [1, 2, 5, 4, "=", 12], [4, 1, -2, 0, "<", 38]]}'
p5
aS'{"sensitive": {}, "z": "Z", "goal": [-4, -6, 8, 7], "dual": true, "sign_str": null, "x": "x", "sign": ["<", ">", "=", "="], "qtype": "min", "x_list": null, "constraints": [[-7, -4, -5, -1, "<", 15], [-2, -5, -9, -5, ">", 36], [0, -9, 3, 0, "=", 31]]}'
p6
aS'{"sensitive": {}, "z": "Z", "goal": [2, -6, 6, -1], "dual": true, "sign_str": null, "x": "x", "sign": [">", "=", "<", "="], "qtype": "min", "x_list": null, "constraints": [[-9, 7, 6, -6, "=", 33], [-3, 3, -5, 7, "<", 9], [-4, -8, -2, -8, ">", 6]]}'
p7
aS'{"sensitive": {}, "z": "Z", "goal": [4, -2, 5, -4], "dual": true, "sign_str": null, "x": "x", "sign": [">", ">", "=", "<"], "qtype": "min", "x_list": null, "constraints": [[-6, -4, -6, -3, "=", 28], [8, 4, 4, 0, ">", 28], [8, -6, -9, 3, "<", 6]]}'
p8
aS'{"sensitive": {}, "z": "Z", "goal": [-5, -1, 0, -4], "dual": true, "sign_str": null, "x": "x", "sign": ["<", ">", "<", "="], "qtype": "min", "x_list": null, "constraints": [[5, 5, 4, -4, ">", 19], [8, -2, -8, -5, "=", 5], [-4, -2, -3, 3, "<", 19]]}'
p9
aS'{"sensitive": {}, "z": "Z", "goal": [4, 8, -5, -2], "dual": true, "sign_str": null, "x": "x", "sign": ["=", "<", ">", "<"], "qtype": "min", "x_list": null, "constraints": [[3, -9, 3, 7, "<", 13], [-6, 2, 3, 0, ">", 12], [-2, -7, -3, -9, "=", 17]]}'
p10
aS'{"sensitive": {}, "z": "Z", "goal": [-2, 3, 0, -7], "dual": true, "sign_str": null, "x": "x", "sign": ["=", "<", "<", ">"], "qtype": "min", "x_list": null, "constraints": [[2, 0, -1, 2, "=", 11], [-6, 0, -7, 2, ">", 18], [3, 7, 8, -1, "<", 15]]}'
p11
aS'{"sensitive": {}, "z": "Z", "goal": [1, 7, 5, -3], "dual": true, "sign_str": null, "x": "x", "sign": [">", "<", ">", "="], "qtype": "min", "x_list": null, "constraints": [[2, 7, 0, 2, "<", 26], [2, -3, -4, 3, ">", 15], [4, -8, -1, 3, "=", 2]]}'
p12
aS'{"sensitive": {}, "z": "Z", "goal": [-1, -3, -9, 0], "dual": true, "sign_str": null, "x": "x", "sign": ["<", ">", "=", ">"], "qtype": "min", "x_list": null, "constraints": [[4, -2, 4, -4, "<", 39], [-7, 8, 7, -2, ">", 1], [0, -1, -5, 6, "=", 11]]}'
p13
aS'{"sensitive": {}, "z": "Z", "goal": [8, 5, 0, -6], "dual": true, "sign_str": null, "x": "x", "sign": [">", "=", ">", "<"], "qtype": "min", "x_list": null, "constraints": [[5, 4, 0, 3, "<", 4], [8, 1, 4, 6, ">", 25], [-4, 5, -4, 8, "=", 20]]}'
p14
aS'{"sensitive": {}, "z": "Z", "goal": [6, 3, -8, -9], "dual": true, "sign_str": null, "x": "x", "sign": [">", "=", "<", ">"], "qtype": "min", "x_list": null, "constraints": [[0, 8, -1, -9, ">", 36], [-5, -5, -9, 4, "=", 22], [-2, 1, 0, 0, "<", 31]]}'
p15
aS'{"sensitive": {}, "z": "Z", "goal": [-1, -8, -8, 1], "dual": true, "sign_str": null, "x": "x", "sign": ["=", ">", "<", ">"], "qtype": "min", "x_list": null, "constraints": [[-5, -3, 4, 7, "<", 19], [-1, -5, -4, 2, ">", 17], [7, 6, -3, -5, "=", 11]]}'
p16
aS'{"sensitive": {}, "z": "Z", "goal": [5, 4, 7, 6], "dual": true, "sign_str": null, "x": "x", "sign": ["<", "=", ">", "<"], "qtype": "min", "x_list": null, "constraints": [[5, -1, -9, 0, "=", 2], [4, 5, -3, -5, ">", 9], [-5, 3, 8, 6, "<", 1]]}'
p17
aS'{"sensitive": {}, "z": "Z", "goal": [2, -6, -8, 6], "dual": true, "sign_str": null, "x": "x", "sign": [">", "=", "=", "<"], "qtype": "min", "x_list": null, "constraints": [[-2, -6, 3, -9, "=", 24], [4, 8, -1, 0, ">", 12], [0, -1, -1, -4, "<", 38]]}'
p18
aS'{"sensitive": {}, "z": "Z", "goal": [-6, -3, 6, -8], "dual": true, "sign_str": null, "x": "x", "sign": [">", ">", "=", "<"], "qtype": "min", "x_list": null, "constraints": [[-4, -6, 8, 2, "<", 36], [-9, 6, -3, 3, ">", 5], [6, -7, -3, -6, "=", 38]]}'
p19
aS'{"sensitive": {}, "z": "Z", "goal": [3, 1, 2, 0], "dual": true, "sign_str": null, "x": "x", "sign": [">", "<", "<", "="], "qtype": "min", "x_list": null, "constraints": [[7, 1, 0, 8, ">", 26], [-6, -1, 7, -6, "=", 16], [4, -7, -2, 4, "<", 38]]}'
p20
aS'{"sensitive": {}, "z": "Z", "goal": [-1, -5, 7, -3], "dual": true, "sign_str": null, "x": "x", "sign": [">", "=", "=", "<"], "qtype": "min", "x_list": null, "constraints": [[-4, 1, -3, 5, "<", 11], [-4, 7, 6, -3, "=", 37], [5, 7, 5, 5, ">", 20]]}'
p21
aS'{"sensitive": {}, "z": "Z", "goal": [-7, 3, 2, 0], "dual": true, "sign_str": null, "x": "x", "sign": [">", "=", "=", "<"], "qtype": "min", "x_list": null, "constraints": [[-2, 0, 8, 5, ">", 7], [3, 3, -2, 0, "=", 37], [-7, 8, -2, -8, "<", 11]]}'
p22
aS'{"sensitive": {}, "z": "Z", "goal": [2, 5, 7, -1], "dual": true, "sign_str": null, "x": "x", "sign": ["=", "<", ">", "="], "qtype": "min", "x_list": null, "constraints": [[-4, -3, 8, -6, ">", 10], [7, 3, -6, 8, "=", 2], [-2, 5, -8, 3, "<", 16]]}'
p23
aS'{"sensitive": {}, "z": "Z", "goal": [7, -9, -7, 2], "dual": true, "sign_str": null, "x": "x", "sign": ["<", ">", "=", "<"], "qtype": "min", "x_list": null, "constraints": [[-9, 2, -3, 2, "=", 25], [-4, -2, 3, -3, "<", 4], [6, 2, 0, -8, ">", 35]]}'
p24
aS'{"sensitive": {}, "z": "Z", "goal": [5, 3, -2, -2], "dual": true, "sign_str": null, "x": "x", "sign": ["=", ">", "=", "<"], "qtype": "min", "x_list": null, "constraints": [[0, -6, -2, 4, "<", 30], [2, 6, 4, 2, ">", 7], [1, 3, -8, -6, "=", 19]]}'
p25
aS'{"sensitive": {}, "z": "Z", "goal": [-2, 8, 7, -1], "dual": true, "sign_str": null, "x": "x", "sign": ["=", ">", "<", "="], "qtype": "min", "x_list": null, "constraints": [[-7, -3, -8, 4, "=", 18], [-5, -9, -9, -8, "<", 8], [-9, -1, 7, -8, ">", 38]]}'
p26
aS'{"sensitive": {}, "z": "Z", "goal": [2, -6, -5, -8], "dual": true, "sign_str": null, "x": "x", "sign": [">", ">", "<", "="], "qtype": "min", "x_list": null, "constraints": [[0, 5, 8, 7, "<", 15], [-6, 8, 3, 8, ">", 10], [1, -1, 4, 2, "=", 28]]}'
p27
aS'{"sensitive": {}, "z": "Z", "goal": [5, 7, 3, 2], "dual": true, "sign_str": null, "x": "x", "sign": ["=", ">", ">", "<"], "qtype": "min", "x_list": null, "constraints": [[-5, 4, 4, -7, "<", 15], [6, -4, -9, -4, ">", 32], [0, -3, 8, -6, "=", 24]]}'
p28
aS'{"sensitive": {}, "z": "Z", "goal": [-1, -7, 4, -3], "dual": true, "sign_str": null, "x": "x", "sign": [">", ">", "<", "="], "qtype": "min", "x_list": null, "constraints": [[-9, -1, -7, -1, "<", 18], [-5, -4, -8, 6, ">", 19], [6, 6, -6, 3, "=", 29]]}'
p29
aS'{"sensitive": {}, "z": "Z", "goal": [-6, 7, 6, -6], "dual": true, "sign_str": null, "x": "x", "sign": ["=", ">", "<", ">"], "qtype": "min", "x_list": null, "constraints": [[5, 7, -6, -2, "=", 13], [3, -7, -9, -2, ">", 29], [-6, 1, 2, -5, "<", 17]]}'
p30
aS'{"sensitive": {}, "z": "Z", "goal": [8, -6, 0, 2], "dual": true, "sign_str": null, "x": "x", "sign": ["=", ">", ">", "<"], "qtype": "min", "x_list": null, "constraints": [[-1, -7, 1, -2, "=", 2], [-7, 0, -8, 1, "<", 8], [2, -6, 7, -5, ">", 17]]}'
p31
aS'{"sensitive": {}, "z": "Z", "goal": [4, -6, 5, -5], "dual": true, "sign_str": null, "x": "x", "sign": [">", ">", "=", "<"], "qtype": "min", "x_list": null, "constraints": [[-5, 3, -9, -1, "<", 16], [-3, 6, 7, 3, "=", 22], [8, -5, -2, 3, ">", 34]]}'
p32
aS'{"sensitive": {}, "z": "Z", "goal": [-5, -5, 2, -4], "dual": true, "sign_str": null, "x": "x", "sign": ["<", ">", "=", "<"], "qtype": "min", "x_list": null, "constraints": [[6, -3, 2, 8, ">", 5], [6, 2, 3, -4, "<", 7], [-8, -1, 8, 1, "=", 31]]}'
p33
aS'{"sensitive": {}, "z": "Z", "goal": [8, -3, -9, -5], "dual": true, "sign_str": null, "x": "x", "sign": ["=", ">", "<", "<"], "qtype": "min", "x_list": null, "constraints": [[4, 4, 0, -5, "<", 26], [6, 4, -5, -9, ">", 26], [-4, -9, 4, 3, "=", 24]]}'
p34
aS'{"sensitive": {}, "z": "Z", "goal": [5, 8, -6, -4], "dual": true, "sign_str": null, "x": "x", "sign": [">", "<", "<", "="], "qtype": "min", "x_list": null, "constraints": [[-9, -7, 0, 0, "=", 13], [-7, -2, 4, 5, ">", 15], [-7, 1, 8, 4, "<", 4]]}'
p35
aS'{"sensitive": {}, "z": "Z", "goal": [4, -2, -4, -3], "dual": true, "sign_str": null, "x": "x", "sign": ["=", "=", ">", "<"], "qtype": "min", "x_list": null, "constraints": [[6, 6, 1, 7, "=", 33], [-4, -3, 1, 5, ">", 30], [3, -5, 2, 1, "<", 27]]}'
p36
aS'{"sensitive": {}, "z": "Z", "goal": [-5, -3, 6, 2], "dual": true, "sign_str": null, "x": "x", "sign": ["<", ">", "=", ">"], "qtype": "min", "x_list": null, "constraints": [[7, -3, 3, 2, "<", 32], [-9, 1, 6, -9, ">", 19], [6, 1, -8, -9, "=", 21]]}'
p37
aS'{"sensitive": {}, "z": "Z", "goal": [-8, -9, 1, 1], "dual": true, "sign_str": null, "x": "x", "sign": ["=", "=", "<", ">"], "qtype": "min", "x_list": null, "constraints": [[5, 5, -9, 6, "=", 11], [-8, 0, -7, -2, ">", 16], [-9, -9, -2, 3, "<", 27]]}'
p38
aS'{"sensitive": {}, "z": "Z", "goal": [4, -9, 0, 7], "dual": true, "sign_str": null, "x": "x", "sign": [">", ">", "=", "<"], "qtype": "min", "x_list": null, "constraints": [[-8, 1, 5, -2, "=", 35], [-4, -8, 3, -6, "<", 35], [0, 4, -8, -7, ">", 38]]}'
p39
aS'{"sensitive": {}, "z": "Z", "goal": [8, 2, 1, -4], "dual": true, "sign_str": null, "x": "x", "sign": ["<", ">", ">", "="], "qtype": "min", "x_list": null, "constraints": [[7, -8, -2, -9, ">", 26], [6, -9, 7, -4, "<", 11], [-3, -8, -4, -4, "=", 14]]}'
p40
aS'{"sensitive": {}, "z": "Z", "goal": [-3, -8, -7, 3], "dual": true, "sign_str": null, "x": "x", "sign": ["=", ">", "=", "<"], "qtype": "min", "x_list": null, "constraints": [[-7, -3, 6, 0, ">", 23], [-5, -5, -5, -9, "=", 28], [-1, -2, -2, 1, "<", 17]]}'
p41
aS'{"sensitive": {}, "z": "Z", "goal": [-8, 3, 3, 2], "dual": true, "sign_str": null, "x": "x", "sign": ["=", "=", "<", ">"], "qtype": "min", "x_list": null, "constraints": [[-5, 3, 8, 3, ">", 33], [5, 1, 0, -9, "<", 28], [-1, 4, -4, 4, "=", 20]]}'
p42
aS'{"sensitive": {}, "z": "Z", "goal": [-1, -3, 6, 4], "dual": true, "sign_str": null, "x": "x", "sign": ["=", "=", "<", ">"], "qtype": "min", "x_list": null, "constraints": [[5, 5, -2, -7, ">", 17], [-1, 4, 0, -4, "<", 10], [6, 1, -1, -3, "=", 36]]}'
p43
aS'{"sensitive": {}, "z": "Z", "goal": [2, -9, -7, -4], "dual": true, "sign_str": null, "x": "x", "sign": ["<", ">", "<", "="], "qtype": "min", "x_list": null, "constraints": [[3, 0, -1, -3, "=", 16], [-5, 3, -1, -8, ">", 37], [-1, 4, -7, 6, "<", 27]]}'
p44
aS'{"sensitive": {}, "z": "Z", "goal": [-2, 4, 7, -2], "dual": true, "sign_str": null, "x": "x", "sign": ["=", "<", "=", ">"], "qtype": "min", "x_list": null, "constraints": [[8, -6, 4, -7, "=", 37], [-5, -9, 6, -9, "<", 16], [2, -5, -2, -7, ">", 32]]}'
p45
aS'{"sensitive": {}, "z": "Z", "goal": [-1, -1, 4, 4], "dual": true, "sign_str": null, "x": "x", "sign": ["=", ">", ">", "<"], "qtype": "min", "x_list": null, "constraints": [[8, 6, 6, -5, "<", 33], [7, 5, 0, -8, ">", 15], [-4, 6, 5, 4, "=", 13]]}'
p46
aS'{"sensitive": {}, "z": "Z", "goal": [4, -4, -4, 6], "dual": true, "sign_str": null, "x": "x", "sign": [">", "=", "<", ">"], "qtype": "min", "x_list": null, "constraints": [[1, -1, -8, 1, "=", 6], [0, 3, 8, -8, ">", 36], [-6, -2, 6, -9, "<", 15]]}'
p47
aS'{"sensitive": {}, "z": "Z", "goal": [5, -4, -4, 8], "dual": true, "sign_str": null, "x": "x", "sign": ["=", ">", ">", "<"], "qtype": "min", "x_list": null, "constraints": [[2, -7, 2, -1, ">", 12], [2, 0, 0, 3, "<", 39], [-7, -8, -4, -2, "=", 34]]}'
p48
aS'{"sensitive": {}, "z": "Z", "goal": [-9, 5, -2, 8], "dual": true, "sign_str": null, "x": "x", "sign": ["=", "=", ">", "<"], "qtype": "min", "x_list": null, "constraints": [[3, 1, 8, -5, "<", 15], [4, 3, 3, 3, ">", 38], [-7, 2, -5, -6, "=", 21]]}'
p49
aS'{"sensitive": {}, "z": "Z", "goal": [-2, 5, -9, 6], "dual": true, "sign_str": null, "x": "x", "sign": [">", "=", ">", "<"], "qtype": "min", "x_list": null, "constraints": [[4, 3, -9, 5, "=", 3], [-8, -6, 3, 8, "<", 20], [7, -1, 6, -5, ">", 35]]}'
p50
aS'{"sensitive": {}, "z": "Z", "goal": [4, -7, 7, -3], "dual": true, "sign_str": null, "x": "x", "sign": [">", "=", "<", ">"], "qtype": "min", "x_list": null, "constraints": [[8, 4, -2, 4, "=", 15], [5, -6, -5, 6, "<", 2], [-5, 1, 5, -2, ">", 30]]}'
p51
aS'{"sensitive": {}, "z": "Z", "goal": [-7, 1, 0, 8], "dual": true, "sign_str": null, "x": "x", "sign": ["=", ">", "<", "<"], "qtype": "min", "x_list": null, "constraints": [[3, -6, -4, 0, "=", 36], [-1, -5, -6, -4, ">", 28], [4, -2, -3, 5, "<", 26]]}'
p52
aS'{"sensitive": {}, "z": "Z", "goal": [-7, 8, -2, -1], "dual": true, "sign_str": null, "x": "x", "sign": [">", "<", "=", ">"], "qtype": "min", "x_list": null, "constraints": [[-8, 5, 0, -5, "<", 8], [-2, -5, -6, 0, "=", 18], [3, -6, 4, 7, ">", 3]]}'
p53
aS'{"sensitive": {}, "z": "Z", "goal": [6, -9, -8, 3], "dual": true, "sign_str": null, "x": "x", "sign": ["<", ">", "=", "="], "qtype": "min", "x_list": null, "constraints": [[3, -4, -8, 7, "=", 15], [-2, -9, -8, -2, "<", 29], [-8, -6, 7, -6, ">", 36]]}'
p54
aS'{"sensitive": {}, "z": "Z", "goal": [1, -8, -7, -9], "dual": true, "sign_str": null, "x": "x", "sign": ["=", ">", "=", "<"], "qtype": "min", "x_list": null, "constraints": [[-2, -4, 8, -9, "=", 16], [8, 8, 6, 2, "<", 6], [-6, 1, 0, -1, ">", 12]]}'
p55
aS'{"sensitive": {}, "z": "Z", "goal": [0, 6, 4, 4], "dual": true, "sign_str": null, "x": "x", "sign": ["<", "=", ">", "<"], "qtype": "min", "x_list": null, "constraints": [[0, 6, -9, 1, ">", 3], [6, -7, -9, -8, "=", 21], [0, 7, -1, -5, "<", 31]]}'
p56
aS'{"sensitive": {}, "z": "Z", "goal": [-9, 5, 4, -5], "dual": true, "sign_str": null, "x": "x", "sign": ["=", ">", "<", ">"], "qtype": "min", "x_list": null, "constraints": [[-1, -1, 3, 2, ">", 10], [7, 3, -1, -9, "=", 3], [-9, -5, 6, -8, "<", 35]]}'
p57
aS'{"sensitive": {}, "z": "Z", "goal": [-9, -1, 7, 6], "dual": true, "sign_str": null, "x": "x", "sign": [">", "<", "=", ">"], "qtype": "min", "x_list": null, "constraints": [[6, -1, -5, 0, "=", 5], [-7, 8, 6, 0, "<", 4], [7, -9, -6, -4, ">", 6]]}'
p58
aS'{"sensitive": {}, "z": "Z", "goal": [5, -4, 4, 8], "dual": true, "sign_str": null, "x": "x", "sign": ["=", "<", "=", ">"], "qtype": "min", "x_list": null, "constraints": [[-7, 2, 8, 4, "<", 22], [-3, -5, -4, -6, ">", 4], [2, 7, 5, 2, "=", 39]]}'
p59
aS'{"sensitive": {}, "z": "Z", "goal": [-4, 1, 7, -6], "dual": true, "sign_str": null, "x": "x", "sign": [">", ">", "<", "="], "qtype": "min", "x_list": null, "constraints": [[-2, -5, -8, -5, ">", 5], [-2, -3, -4, -2, "<", 23], [-1, -3, 6, -3, "=", 4]]}'
p60
aS'{"sensitive": {}, "z": "Z", "goal": [2, 0, 2, 6], "dual": true, "sign_str": null, "x": "x", "sign": ["<", ">", "=", "<"], "qtype": "min", "x_list": null, "constraints": [[7, 5, 3, -7, "<", 3], [6, -7, -6, 8, ">", 36], [2, -7, 5, -3, "=", 23]]}'
p61
aS'{"sensitive": {}, "z": "Z", "goal": [-7, -8, 7, 8], "dual": true, "sign_str": null, "x": "x", "sign": [">", "<", ">", "="], "qtype": "min", "x_list": null, "constraints": [[5, 0, -8, 0, ">", 10], [-6, -6, -4, 4, "=", 14], [-4, -8, -1, -7, "<", 14]]}'
p62
aS'{"sensitive": {}, "z": "Z", "goal": [7, -8, 1, -7], "dual": true, "sign_str": null, "x": "x", "sign": [">", "=", "<", ">"], "qtype": "min", "x_list": null, "constraints": [[-1, 5, -8, -7, "=", 39], [-8, -8, -2, -5, "<", 22], [1, 7, -3, 0, ">", 39]]}'
p63
aS'{"sensitive": {}, "z": "Z", "goal": [6, 5, -2, -5], "dual": true, "sign_str": null, "x": "x", "sign": ["<", "=", "<", ">"], "qtype": "min", "x_list": null, "constraints": [[-8, 0, -9, -6, ">", 16], [-6, 4, 5, 1, "=", 26], [8, -4, 3, 7, "<", 23]]}'
p64
aS'{"sensitive": {}, "z": "Z", "goal": [8, -3, -5, 2], "dual": true, "sign_str": null, "x": "x", "sign": ["<", "<", ">", "="], "qtype": "min", "x_list": null, "constraints": [[4, 6, 8, 5, "=", 18], [-9, 0, 0, -4, "<", 11], [-7, 5, -8, -5, ">", 2]]}'
p65
aS'{"sensitive": {}, "z": "Z", "goal": [2, -1, 7, -6], "dual": true, "sign_str": null, "x": "x", "sign": ["<", "=", ">", "<"], "qtype": "min", "x_list": null, "constraints": [[-5, 0, -9, -2, "=", 17], [-9, -6, 4, 7, ">", 30], [-3, -2, -7, 1, "<", 17]]}'
p66
aS'{"sensitive": {}, "z": "Z", "goal": [-4, -5, 7, 2], "dual": true, "sign_str": null, "x": "x", "sign": ["=", "<", ">", "="], "qtype": "min", "x_list": null, "constraints": [[0, -6, -3, -3, "=", 1], [1, -5, 8, -2, "<", 5], [-1, -8, 7, 7, ">", 24]]}'
p67
aS'{"sensitive": {}, "z": "Z", "goal": [-7, 1, 6, 1], "dual": true, "sign_str": null, "x": "x", "sign": ["=", "<", "<", ">"], "qtype": "min", "x_list": null, "constraints": [[-6, -2, -1, 1, "=", 16], [6, -4, 1, 5, "<", 15], [1, -4, -8, 1, ">", 23]]}'
p68
aS'{"sensitive": {}, "z": "Z", "goal": [4, 3, 4, -1], "dual": true, "sign_str": null, "x": "x", "sign": ["<", "=", ">", "<"], "qtype": "min", "x_list": null, "constraints": [[7, 2, 4, 5, "<", 3], [-4, 8, 7, -3, ">", 18], [7, 8, 6, 6, "=", 37]]}'
p69
aS'{"sensitive": {}, "z": "Z", "goal": [7, 8, 4, -1], "dual": true, "sign_str": null, "x": "x", "sign": ["=", "<", ">", "="], "qtype": "min", "x_list": null, "constraints": [[-3, 1, 4, 1, ">", 29], [0, 2, 2, -8, "=", 11], [8, 5, -7, -4, "<", 32]]}'
p70
aS'{"sensitive": {}, "z": "Z", "goal": [-7, 0, 3, -6], "dual": true, "sign_str": null, "x": "x", "sign": ["<", ">", "<", "="], "qtype": "min", "x_list": null, "constraints": [[0, -1, 0, 5, "<", 22], [5, 5, 7, -8, ">", 36], [-5, -6, 8, -3, "=", 36]]}'
p71
aS'{"sensitive": {}, "z": "Z", "goal": [0, 8, -2, 3], "dual": true, "sign_str": null, "x": "x", "sign": [">", "<", ">", "="], "qtype": "min", "x_list": null, "constraints": [[-4, -1, 7, 7, "<", 1], [8, 1, 0, 6, "=", 19], [0, -4, -6, 1, ">", 9]]}'
p72
aS'{"sensitive": {}, "z": "Z", "goal": [-9, -2, -3, -9], "dual": true, "sign_str": null, "x": "x", "sign": ["<", ">", "=", "<"], "qtype": "min", "x_list": null, "constraints": [[5, 3, 8, -5, "<", 11], [1, 6, -7, -8, ">", 13], [0, 4, 8, -3, "=", 1]]}'
p73
aS'{"sensitive": {}, "z": "Z", "goal": [-3, 5, 8, -1], "dual": true, "sign_str": null, "x": "x", "sign": ["<", ">", "=", "<"], "qtype": "min", "x_list": null, "constraints": [[3, -7, 2, -7, ">", 10], [8, 6, 1, -3, "=", 35], [1, -2, 7, -7, "<", 6]]}'
p74
aS'{"sensitive": {}, "z": "Z", "goal": [-8, -2, 0, -9], "dual": true, "sign_str": null, "x": "x", "sign": ["=", "<", "<", ">"], "qtype": "min", "x_list": null, "constraints": [[5, 4, -4, 8, ">", 39], [-6, -3, 0, -6, "<", 27], [6, -3, -2, 7, "=", 7]]}'
p75
aS'{"sensitive": {}, "z": "Z", "goal": [7, 4, 7, -8], "dual": true, "sign_str": null, "x": "x", "sign": [">", "=", ">", "<"], "qtype": "min", "x_list": null, "constraints": [[2, 0, -9, -2, "=", 30], [-5, -5, -9, 8, "<", 8], [-7, -1, 8, -2, ">", 4]]}'
p76
aS'{"sensitive": {}, "z": "Z", "goal": [-1, 8, -2, 8], "dual": true, "sign_str": null, "x": "x", "sign": [">", "=", "<", "<"], "qtype": "min", "x_list": null, "constraints": [[-6, -3, 5, 6, ">", 5], [8, 6, 3, 2, "<", 34], [0, 6, -9, -2, "=", 7]]}'
p77
aS'{"sensitive": {}, "z": "Z", "goal": [-3, 6, 5, 1], "dual": true, "sign_str": null, "x": "x", "sign": ["=", "<", ">", "="], "qtype": "min", "x_list": null, "constraints": [[-5, 1, -2, 0, "=", 16], [-5, -2, -2, -9, "<", 4], [7, 0, 8, 6, ">", 8]]}'
p78
aS'{"sensitive": {}, "z": "Z", "goal": [-3, 7, -8, -3], "dual": true, "sign_str": null, "x": "x", "sign": ["<", "=", ">", "<"], "qtype": "min", "x_list": null, "constraints": [[1, 7, -2, 5, "=", 30], [-7, -6, 7, 3, "<", 19], [2, 7, -7, -2, ">", 6]]}'
p79
aS'{"sensitive": {}, "z": "Z", "goal": [8, 3, 7, -1], "dual": true, "sign_str": null, "x": "x", "sign": ["<", "=", ">", ">"], "qtype": "min", "x_list": null, "constraints": [[-6, 2, 8, 3, ">", 23], [-4, 7, 1, -1, "=", 1], [1, -6, -2, 0, "<", 6]]}'
p80
aS'{"sensitive": {}, "z": "Z", "goal": [1, -7, -2, 2], "dual": true, "sign_str": null, "x": "x", "sign": ["=", ">", "=", "<"], "qtype": "min", "x_list": null, "constraints": [[-5, 1, 5, 6, ">", 14], [-8, -8, -3, -8, "<", 23], [6, -4, 5, -1, "=", 32]]}'
p81
aS'{"sensitive": {}, "z": "Z", "goal": [-8, -4, -7, 5], "dual": true, "sign_str": null, "x": "x", "sign": ["=", "<", ">", "="], "qtype": "min", "x_list": null, "constraints": [[3, -6, -2, -4, "=", 7], [-2, 0, 8, 7, "<", 4], [-4, -7, -7, -7, ">", 32]]}'
p82
aS'{"sensitive": {}, "z": "Z", "goal": [-7, 2, -1, -4], "dual": true, "sign_str": null, "x": "x", "sign": ["=", ">", "<", "="], "qtype": "min", "x_list": null, "constraints": [[-6, -7, 5, -2, "=", 24], [-3, 8, -5, -4, ">", 39], [8, -9, -7, 7, "<", 10]]}'
p83
aS'{"sensitive": {}, "z": "Z", "goal": [8, 4, 5, -5], "dual": true, "sign_str": null, "x": "x", "sign": [">", "=", "<", "="], "qtype": "min", "x_list": null, "constraints": [[-2, -1, 2, 5, "<", 22], [1, 1, -4, 3, "=", 29], [5, 4, -8, -8, ">", 32]]}'
p84
aS'{"sensitive": {}, "z": "Z", "goal": [-1, 3, -4, -6], "dual": true, "sign_str": null, "x": "x", "sign": ["<", "<", "=", ">"], "qtype": "min", "x_list": null, "constraints": [[8, -9, 7, -3, "<", 30], [-1, -6, 8, -5, ">", 34], [-1, -7, -2, -5, "=", 5]]}'
p85
aS'{"sensitive": {}, "z": "Z", "goal": [-6, 6, -5, -5], "dual": true, "sign_str": null, "x": "x", "sign": ["=", ">", "<", "="], "qtype": "min", "x_list": null, "constraints": [[-7, -4, 1, 8, ">", 12], [2, 4, 4, 7, "=", 30], [-4, 3, 8, 3, "<", 19]]}'
p86
aS'{"sensitive": {}, "z": "Z", "goal": [-4, -5, -3, -9], "dual": true, "sign_str": null, "x": "x", "sign": ["<", "=", "<", ">"], "qtype": "min", "x_list": null, "constraints": [[0, -9, -3, 3, ">", 15], [-9, -5, -4, 5, "=", 15], [1, -1, -7, -6, "<", 35]]}'
p87
aS'{"sensitive": {}, "z": "Z", "goal": [7, 4, 0, -1], "dual": true, "sign_str": null, "x": "x", "sign": ["<", "=", "=", ">"], "qtype": "min", "x_list": null, "constraints": [[-4, 4, 2, -3, "=", 18], [5, -9, -2, -3, ">", 16], [-8, -4, -2, 8, "<", 22]]}'
p88
aS'{"sensitive": {}, "z": "Z", "goal": [-5, -9, 0, 8], "dual": true, "sign_str": null, "x": "x", "sign": [">", "=", "<", "="], "qtype": "min", "x_list": null, "constraints": [[-2, -6, -1, 5, ">", 31], [2, 5, 1, -6, "=", 22], [-8, -1, -2, 5, "<", 13]]}'
p89
aS'{"sensitive": {}, "z": "Z", "goal": [7, -8, -5, -2], "dual": true, "sign_str": null, "x": "x", "sign": [">", "<", "=", "<"], "qtype": "min", "x_list": null, "constraints": [[-9, -9, -2, -1, "<", 2], [2, 0, 0, 8, "=", 16], [-3, -9, 2, 3, ">", 1]]}'
p90
aS'{"sensitive": {}, "z": "Z", "goal": [3, -3, 5, -4], "dual": true, "sign_str": null, "x": "x", "sign": ["<", "=", "=", ">"], "qtype": "min", "x_list": null, "constraints": [[-5, 0, 1, 8, ">", 34], [-9, 4, -7, 4, "<", 24], [-5, -3, -3, 6, "=", 38]]}'
p91
aS'{"sensitive": {}, "z": "Z", "goal": [2, 8, 8, 5], "dual": true, "sign_str": null, "x": "x", "sign": [">", "<", "=", "<"], "qtype": "min", "x_list": null, "constraints": [[2, 8, -5, 4, "<", 14], [4, 3, -2, -5, "=", 26], [7, 7, 3, 0, ">", 31]]}'
p92
aS'{"sensitive": {}, "z": "Z", "goal": [-4, -3, -4, -2], "dual": true, "sign_str": null, "x": "x", "sign": [">", ">", "<", "="], "qtype": "min", "x_list": null, "constraints": [[-4, 0, -1, 3, "<", 19], [-1, 8, 0, -3, "=", 34], [7, 8, 1, -7, ">", 3]]}'
p93
aS'{"sensitive": {}, "z": "Z", "goal": [-6, -6, -9, 7], "dual": true, "sign_str": null, "x": "x", "sign": [">", "=", "<", "<"], "qtype": "min", "x_list": null, "constraints": [[-1, -2, -3, 1, "=", 4], [-2, 7, 5, -4, ">", 25], [-8, -3, -1, -6, "<", 9]]}'
p94
aS'{"sensitive": {}, "z": "Z", "goal": [1, -9, -9, 2], "dual": true, "sign_str": null, "x": "x", "sign": ["<", ">", ">", "="], "qtype": "min", "x_list": null, "constraints": [[4, 8, 4, 7, ">", 30], [-8, -9, -3, -9, "=", 16], [5, -2, 2, 3, "<", 39]]}'
p95
aS'{"sensitive": {}, "z": "Z", "goal": [-4, 7, -9, -3], "dual": true, "sign_str": null, "x": "x", "sign": ["<", ">", "=", ">"], "qtype": "min", "x_list": null, "constraints": [[8, -4, -1, -3, ">", 37], [1, -8, -3, -4, "=", 16], [-7, 0, -1, -3, "<", 27]]}'
p96
aS'{"sensitive": {}, "z": "Z", "goal": [-8, -4, 1, -2], "dual": true, "sign_str": null, "x": "x", "sign": ["<", ">", "=", "="], "qtype": "min", "x_list": null, "constraints": [[6, 1, -9, -9, "=", 18], [-2, -4, 4, 8, "<", 18], [5, 7, -8, -6, ">", 18]]}'
p97
aS'{"sensitive": {}, "z": "Z", "goal": [-4, -9, -1, -4], "dual": true, "sign_str": null, "x": "x", "sign": ["<", ">", "=", "="], "qtype": "min", "x_list": null, "constraints": [[8, -3, -1, 2, "=", 13], [7, -8, 6, -2, "<", 29], [3, 4, -5, -2, ">", 27]]}'
p98
aS'{"sensitive": {}, "z": "Z", "goal": [1, -4, 4, 5], "dual": true, "sign_str": null, "x": "x", "sign": [">", "<", "=", "="], "qtype": "min", "x_list": null, "constraints": [[-8, -8, 0, 3, "<", 13], [-9, 2, 8, -8, "=", 15], [7, -6, -6, -7, ">", 16]]}'
p99
aS'{"sensitive": {}, "z": "Z", "goal": [-5, 5, -3, -1], "dual": true, "sign_str": null, "x": "x", "sign": ["<", ">", ">", "="], "qtype": "min", "x_list": null, "constraints": [[8, -6, 7, -2, ">", 3], [-8, -5, -1, 2, "=", 3], [-6, -1, 0, 0, "<", 31]]}'
p100
a.