(lp0
S'{"sensitive": {}, "z": "Z", "goal": [6, -7, 5, 8], "dual": true, "sign_str": null, "x": "x", "sign": [">", "<", "=", "<"], "qtype": "max", "x_list": null, "constraints": [[-6, 5, -2, -3, "=", 21], [-4, 1, 4, 7, "<", 38], [4, 4, 2, 5, ">", 29]]}'
p1
aS'{"sensitive": {}, "z": "Z", "goal": [5, -6, -6, -2], "dual": true, "sign_str": null, "x": "x", "sign": ["<", "=", "=", ">"], "qtype": "max", "x_list": null, "constraints": [[-2, -9, -8, 7, "=", 19], [5, -1, 6, 8, ">", 17], [1, 3, 0, 2, "<", 14]]}'
p2
aS'{"sensitive": {}, "z": "Z", "goal": [-6, 2, -4, 6], "dual": true, "sign_str": null, "x": "x", "sign": ["=", "<", ">", ">"], "qtype": "max", "x_list": null, "constraints": [[3, -3, -2, -2, "<", 38], [2, 7, -9, 4, ">", 38], [5, 0, -4, -1, "=", 31]]}'
p3
aS'{"sensitive": {}, "z": "Z", "goal": [-1, -4, -3, -2], "dual": true, "sign_str": null, "x": "x", "sign": [">", "=", ">", "<"], "qtype": "max", "x_list": null, "constraints": [[2, -9, -5, 6, "<", 33], [7, 4, -8, 5, "=", 30], [-4, -4, -5, -8, ">", 37]]}'
p4
aS'{"sensitive": {}, "z": "Z", "goal": [0, 3, -8, 0], "dual": true, "sign_str": null, "x": "x", "sign": [">", ">", "<", "="], "qtype": "max", "x_list": null, "constraints": [[-2, -5, 6, 3, "=", 18], [-9, -6, -2, -7, "<", 36], [3, -2, -2, -6, ">", 18]]}'
p5
aS'{"sensitive": {}, "z": "Z", "goal": [-9, -8, 5, -4], "dual": true, "sign_str": null, "x": "x", "sign": ["=", ">", "<", "<"], "qtype": "max", "x_list": null, "constraints": [[3, -4, -1, -2, "<", 39], [3, -4, -8, 6, "=", 13], [-3, 5, -4, -7, ">", 32]]}'
p6
aS'{"sensitive": {}, "z": "Z", "goal": [-8, 6, -1, -5], "dual": true, "sign_str": null, "x": "x", "sign": ["=", "=", "<", ">"], "qtype": "max", "x_list": null, "constraints": [[6, -5, 2, 1, "<", 31], [7, 8, -1, -1, ">", 8], [3, 7, -9, 6, "=", 6]]}'
p7
aS'{"sensitive": {}, "z": "Z", "goal": [-3, 2, 2, 6], "dual": true, "sign_str": null, "x": "x", "sign": ["<", ">", "=", "<"], "qtype": "max", "x_list": null, "constraints": [[-6, 2, 2, 8, "<", 1], [-7, 6, -1, -9, "=", 7], [4, -2, -9, -9, ">", 36]]}'
p8
aS'{"sensitive": {}, "z": "Z", "goal": [6, 0, -1, -6], "dual": true, "sign_str": null, "x": "x", "sign": ["<", ">", "=", "<"], "qtype": "max", "x_list": null, "constraints": [[0, -3, 1, -4, "<", 38], [1, 4, 7, -7, "=", 8], [-4, 7, -4, -8, ">", 4]]}'
p9
aS'{"sensitive": {}, "z": "Z", "goal": [4, -7, 7, -5], "dual": true, "sign_str": null, "x": "x", "sign": ["=", ">", "<", "<"], "qtype": "max", "x_list": null, "constraints": [[8, 2, -9, -3, "=", 28], [-1, -6, -6, -8, ">", 33], [-9, -6, 6, -4, "<", 15]]}'
p10
aS'{"sensitive": {}, "z": "Z", "goal": [3, -7, -8, -7], "dual": true, "sign_str": null, "x": "x", "sign": [">", "<", "=", ">"], "qtype": "max", "x_list": null, "constraints": [[5, -2, -8, 6, "=", 39], [-6, -8, -7, 2, ">", 10], [-2, 8, 2, -3, "<", 13]]}'
p11
aS'{"sensitive": {}, "z": "Z", "goal": [-6, 6, -5, -8], "dual": true, "sign_str": null, "x": "x", "sign": ["=", "<", "=", ">"], "qtype": "max", "x_list": null, "constraints": [[5, 8, -4, 4, "=", 37], [-7, -1, -9, 4, ">", 9], [-2, -8, 5, 7, "<", 13]]}'
p12
aS'{"sensitive": {}, "z": "Z", "goal": [5, 6, 2, -2], "dual": true, "sign_str": null, "x": "x", "sign": [">", "<", "=", ">"], "qtype": "max", "x_list": null, "constraints": [[-4, -8, 7, -8, ">", 35], [3, 5, 3, -9, "<", 37], [8, -9, 8, -2, "=", 22]]}'
p13
aS'{"sensitive": {}, "z": "Z", "goal": [4, 3, -2, 0], "dual": true, "sign_str": null, "x": "x", "sign": [">", "<", ">", "="], "qtype": "max", "x_list": null, "constraints": [[3, -9, -2, -6, ">", 31], [7, -3, 1, 0, "=", 34], [-2, -1, -8, -7, "<", 27]]}'
p14
aS'{"sensitive": {}, "z": "Z", "goal": [5, -4, -1, 7], "dual": true, "sign_str": null, "x": "x", "sign": [">", "=", "<", ">"], "qtype": "max", "x_list": null, "constraints": [[-6, -4, 5, 0, ">", 26], [4, 2, 5, 6, "<", 4], [-2, 7, 3, -9, "=", 21]]}'
p15
aS'{"sensitive": {}, "z": "Z", "goal": [-7, -6, 3, -1], "dual": true, "sign_str": null, "x": "x", "sign": ["=", "=", ">", "<"], "qtype": "max", "x_list": null, "constraints": [[4, -2, 7, -9, ">", 38], [8, 2, -7, 2, "=", 29], [-1, 5, 2, -9, "<", 27]]}'
p16
aS'{"sensitive": {}, "z": "Z", "goal": [-5, 4, -1, -4], "dual": true, "sign_str": null, "x": "x", "sign": ["<", "=", "<", ">"], "qtype": "max", "x_list": null, "constraints": [[4, -1, -5, -7, ">", 13], [2, 5, -6, -3, "=", 9], [-9, -2, -8, -5, "<", 17]]}'
p17
aS'{"sensitive": {}, "z": "Z", "goal": [2, -6, -7, -3], "dual": true, "sign_str": null, "x": "x", "sign": [">", "=", ">", "<"], "qtype": "max", "x_list": null, "constraints": [[4, 6, -7, -7, "<", 7], [7, -6, -3, 0, ">", 24], [-4, 3, 3, 4, "=", 23]]}'
p18
aS'{"sensitive": {}, "z": "Z", "goal": [4, 2, -5, 7], "dual": true, "sign_str": null, "x": "x", "sign": [">", "<", "=", "<"], "qtype": "max", "x_list": null, "constraints": [[7, -9, 0, 5, ">", 26], [-9, 6, 7, -1, "<", 30], [2, -8, -5, -5, "=", 31]]}'
p19
aS'{"sensitive": {}, "z": "Z", "goal": [-5, 1, 1, 3], "dual": true, "sign_str": null, "x": "x", "sign": [">", "=", "<", "="], "qtype": "max", "x_list": null, "constraints": [[-6, -1, -4, 0, "<", 3], [0, 7, 7, 1, "=", 12], [-2, -2, -2, 4, ">", 5]]}'
p20
aS'{"sensitive": {}, "z": "Z", "goal": [3, 1, -1, -7], "dual": true, "sign_str": null, "x": "x", "sign": ["<", "=", ">", "<"], "qtype": "max", "x_list": null, "constraints": [[6, 8, 0, 5, ">", 38], [8, -5, 5, 5, "=", 29], [1, 0, -6, 0, "<", 6]]}'
p21
aS'{"sensitive": {}, "z": "Z", "goal": [-2, 7, -2, 8], "dual": true, "sign_str": null, "x": "x", "sign": ["=", ">", "=", "<"], "qtype": "max", "x_list": null, "constraints": [[2, 5, -9, -3, "<", 13], [5, 1, -3, -1, ">", 29], [-5, -5, 4, -1, "=", 22]]}'
p22
aS'{"sensitive": {}, "z": "Z", "goal": [-7, 7, -9, -6], "dual": true, "sign_str": null, "x": "x", "sign": ["=", ">", "=", "<"], "qtype": "max", "x_list": null, "constraints": [[-8, -3, -1, 2, "=", 10], [-2, -1, 6, -8, "<", 3], [1, -4, -1, 2, ">", 35]]}'
p23
aS'{"sensitive": {}, "z": "Z", "goal": [-1, 3, -5, -9], "dual": true, "sign_str": null, "x": "x", "sign": ["=", "<", ">", ">"], "qtype": "max", "x_list": null, "constraints": [[7, -9, 3, -8, ">", 7], [2, -2, -6, 7, "<", 5], [5, -8, 1, 5, "=", 36]]}'
p24
aS'{"sensitive": {}, "z": "Z", "goal": [-3, -1, -7, 1], "dual": true, "sign_str": null, "x": "x", "sign": ["<", ">", ">", "="], "qtype": "max", "x_list": null, "constraints": [[-1, -2, 7, 0, ">", 17], [-8, -4, -4, -1, "=", 37], [2, 1, 4, 5, "<", 29]]}'
p25
aS'{"sensitive": {}, "z": "Z", "goal": [-5, -6, 5, 5], "dual": true, "sign_str": null, "x": "x", "sign": [">", "=", "<", ">"], "qtype": "max", "x_list": null, "constraints": [[8, 2, -7, 5, "=", 10], [1, -6, -3, 0, ">", 4], [-1, -2, 2, -7, "<", 4]]}'
p26
aS'{"sensitive": {}, "z": "Z", "goal": [-4, 8, -2, 7], "dual": true, "sign_str": null, "x": "x", "sign": ["=", "<", ">", "<"], "qtype": "max", "x_list": null, "constraints": [[0, -9, 4, -5, ">", 25], [2, 0, 7, 2, "=", 31], [-7, 1, 4, 7, "<", 6]]}'
p27
aS'{"sensitive": {}, "z": "Z", "goal": [-1, 0, -5, 2], "dual": true, "sign_str": null, "x": "x", "sign": ["=", ">", ">", "<"], "qtype": "max", "x_list": null, "constraints": [[3, 3, 7, -2, "<", 1], [-8, -4, -9, 6, ">", 8], [0, 5, 2, 7, "=", 23]]}'
p28
aS'{"sensitive": {}, "z": "Z", "goal": [-3, 5, -5, -7], "dual": true, "sign_str": null, "x": "x", "sign": ["<", "<", "=", ">"], "qtype": "max", "x_list": null, "constraints": [[-1, -5, -7, 6, "<", 33], [-8, 5, 3, 5, ">", 25], [-8, 1, -5, 7, "=", 12]]}'
p29
aS'{"sensitive": {}, "z": "Z", "goal": [3, 7, -9, 3], "dual": true, "sign_str": null, "x": "x", "sign": [">", "=", "<", "<"], "qtype": "max", "x_list": null, "constraints": [[3, 7, -5, -3, "=", 38], [-3, -8, 1, -9, ">", 16], [0, -5, 3, -1, "<", 19]]}'
p30
aS'{"sensitive": {}, "z": "Z", "goal": [5, -6, 7, 7], "dual": true, "sign_str": null, "x": "x", "sign": ["<", "=", ">", "<"], "qtype": "max", "x_list": null, "constraints": [[-4, 7, 8, 6, "=", 6], [-1, -7, -2, -8, ">", 37], [-7, -7, -3, 3, "<", 21]]}'
p31
aS'{"sensitive": {}, "z": "Z", "goal": [7, 1, -5, -8], "dual": true, "sign_str": null, "x": "x", "sign": [">", "=", ">", "<"], "qtype": "max", "x_list": null, "constraints": [[0, -7, 6, 1, "<", 4], [1, 1, -6, 0, "=", 38], [-3, 2, 0, 3, ">", 1]]}'
p32
aS'{"sensitive": {}, "z": "Z", "goal": [-4, 2, 0, 1], "dual": true, "sign_str": null, "x": "x", "sign": ["=", "<", "=", ">"], "qtype": "max", "x_list": null, "constraints": [[-1, -6, 6, -3, ">", 14], [-9, 6, 5, 3, "<", 22], [-2, -6, -1, 5, "=", 23]]}'
p33
aS'{"sensitive": {}, "z": "Z", "goal": [-9, -2, 5, 3], "dual": true, "sign_str": null, "x": "x", "sign": [">", "=", "<", "="], "qtype": "max", "x_list": null, "constraints": [[2, 1, 2, 1, "<", 33], [6, 8, 3, -1, ">", 11], [-8, 3, 2, -8, "=", 12]]}'
p34
aS'{"sensitive": {}, "z": "Z", "goal": [-5, 1, -7, 5], "dual": true, "sign_str": null, "x": "x", "sign": ["=", "<", "=", ">"], "qtype": "max", "x_list": null, "constraints": [[-8, 5, -7, 6, "<", 15], [7, -8, -6, -3, "=", 38], [-4, 3, 1, -5, ">", 29]]}'
p35
aS'{"sensitive": {}, "z": "Z", "goal": [8, -9, 0, 3], "dual": true, "sign_str": null, "x": "x", "sign": ["<", "=", "<", ">"], "qtype": "max", "x_list": null, "constraints": [[-3, -7, -4, -7, "<", 15], [6, -5, 4, -4, "=", 16], [3, 3, 1, 2, ">", 12]]}'
p36
aS'{"sensitive": {}, "z": "Z", "goal": [6, 8, -6, -9], "dual": true, "sign_str": null, "x": "x", "sign": [">", "<", "<", "="], "qtype": "max", "x_list": null, "constraints": [[0, 7, -7, 4, "<", 32], [2, -8, -7, -4, "=", 33], [6, -5, -1, 8, ">", 22]]}'
p37
aS'{"sensitive": {}, "z": "Z", "goal": [-1, 3, -6, -9], "dual": true, "sign_str": null, "x": "x", "sign": [">", "<", "<", "="], "qtype": "max", "x_list": null, "constraints": [[-4, 6, -4, 6, "<", 16], [1, 2, -5, -8, "=", 35], [-7, 2, -9, -5, ">", 5]]}'
p38
aS'{"sensitive": {}, "z": "Z", "goal": [0, -3, -1, 3], "dual": true, "sign_str": null, "x": "x", "sign": ["=", ">", "<", ">"], "qtype": "max", "x_list": null, "constraints": [[3, 6, -5, -7, ">", 20], [-7, 2, -2, -4, "<", 10], [4, -4, 8, 4, "=", 37]]}'
p39
aS'{"sensitive": {}, "z": "Z", "goal": [6, 7, 1, 6], "dual": true, "sign_str": null, "x": "x", "sign": ["<", ">", "<", "="], "qtype": "max", "x_list": null, "constraints": [[-3, -2, -5, -4, ">", 15], [4, -2, 8, -8, "<", 9], [-8, -9, -8, 0, "=", 23]]}'
p40
aS'{"sensitive": {}, "z": "Z", "goal": [1, 6, 5, 1], "dual": true, "sign_str": null, "x": "x", "sign": ["<", ">", "=", ">"], "qtype": "max", "x_list": null, "constraints": [[2, -6, -2, 6, "=", 7], [-1, -8, -2, 4, ">", 27], [1, -8, -4, -2, "<", 18]]}'
p41
aS'{"sensitive": {}, "z": "Z", "goal": [4, 6, -9, -7], "dual": true, "sign_str": null, "x": "x", "sign": ["<", "<", ">", "="], "qtype": "max", "x_list": null, "constraints": [[8, 2, 2, 8, "<", 17], [8, 4, 5, 0, ">", 14], [7, 4, 5, -6, "=", 18]]}'
p42
aS'{"sensitive": {}, "z": "Z", "goal": [-7, 7, -2, -2], "dual": true, "sign_str": null, "x": "x", "sign": ["=", ">", "<", "<"], "qtype": "max", "x_list": null, "constraints": [[-4, -2, 2, -9, ">", 13], [-3, 6, -3, 1, "<", 30], [-9, -5, -2, 4, "=", 39]]}'
p43
aS'{"sensitive": {}, "z": "Z", "goal": [6, 8, -4, -6], "dual": true, "sign_str": null, "x": "x", "sign": ["=", "=", ">", "<"], "qtype": "max", "x_list": null, "constraints": [[0, 7, 5, -4, ">", 17], [-3, -5, -9, 4, "<", 8], [-5, -6, -3, -3, "=", 3]]}'
p44
aS'{"sensitive": {}, "z": "Z", "goal": [2, 7, 8, -9], "dual": true, "sign_str": null, "x": "x", "sign": [">", "=", ">", "<"], "qtype": "max", "x_list": null, "constraints": [[2, -8, -8, 0, "<", 4], [-7, 0, 3, 7, ">", 25], [6, 5, -7, 2, "=", 25]]}'
p45
aS'{"sensitive": {}, "z": "Z", "goal": [-4, 8, -2, 5], "dual": true, "sign_str": null, "x": "x", "sign": ["=", "<", "<", ">"], "qtype": "max", "x_list": null, "constraints": [[-5, -6, -3, 4, "<", 28], [-6, -9, -5, -6, "=", 10], [-6, -3, 0, -1, ">", 32]]}'
p46
aS'{"sensitive": {}, "z": "Z", "goal": [-7, 2, 3, -3], "dual": true, "sign_str": null, "x": "x", "sign": [">", "<", "=", "="], "qtype": "max", "x_list": null, "constraints": [[3, -7, 1, 5, ">", 6], [-3, 3, 2, 7, "<", 37], [-3, 3, -7, 3, "=", 26]]}'
p47
aS'{"sensitive": {}, "z": "Z", "goal": [4, 8, -2, -2], "dual": true, "sign_str": null, "x": "x", "sign": ["=", "<", ">", "<"], "qtype": "max", "x_list": null, "constraints": [[-8, 7, -4, 4, "<", 32], [0, -4, -6, 8, ">", 21], [2, -1, -2, -5, "=", 39]]}'
p48
aS'{"sensitive": {}, "z": "Z", "goal": [-4, 4, 1, 4], "dual": true, "sign_str": null, "x": "x", "sign": ["=", "<", ">", "="], "qtype": "max", "x_list": null, "constraints": [[8, -9, 1, 1, "<", 4], [2, 5, -2, -7, ">", 21], [-1, 6, 7, -1, "=", 1]]}'
p49
aS'{"sensitive": {}, "z": "Z", "goal": [4, 7, -9, 1], "dual": true, "sign_str": null, "x": "x", "sign": [">", "<", "=", "="], "qtype": "max", "x_list": null, "constraints": [[-6, 3, 7, -6, "<", 2], [1, 8, -5, -3, ">", 21], [-8, 8, -1, -3, "=", 22]]}'
p50
aS'{"sensitive": {}, "z": "Z", "goal": [4, -8, 4, -8], "dual": true, "sign_str": null, "x": "x", "sign": [">", "=", "=", "<"], "qtype": "max", "x_list": null, "constraints": [[-8, -3, 0, 7, "=", 39], [5, -4, 2, -4, "<", 25], [-6, -3, 2, -8, ">", 38]]}'
p51
aS'{"sensitive": {}, "z": "Z", "goal": [-8, 6, -7, 2], "dual": true, "sign_str": null, "x": "x", "sign": ["=", "=", ">", "<"], "qtype": "max", "x_list": null, "constraints": [[3, -2, 4, 7, "=", 2], [-2, -5, 4, -6, ">", 16], [-9, -9, -4, 8, "<", 33]]}'
p52
aS'{"sensitive": {}, "z": "Z", "goal": [6, -6, -4, 3], "dual": true, "sign_str": null, "x": "x", "sign": [">", "<", "=", "="], "qtype": "max", "x_list": null, "constraints": [[8, -1, -9, 6, "=", 39], [8, -8, -3, 7, "<", 17], [3, 2, -9, 6, ">", 3]]}'
p53
aS'{"sensitive": {}, "z": "Z", "goal": [-2, -1, -2, 3], "dual": true, "sign_str": null, "x": "x", "sign": ["=", "<", ">", "="], "qtype": "max", "x_list": null, "constraints": [[-6, -3, -3, -3, ">", 29], [-3, -9, 1, 5, "<", 36], [5, -1, 2, 0, "=", 10]]}'
p54
aS'{"sensitive": {}, "z": "Z", "goal": [8, -1, 4, 5], "dual": true, "sign_str": null, "x": "x", "sign": [">", "=", "<", "<"], "qtype": "max", "x_list": null, "constraints": [[5, 5, 8, -7, "<", 10], [8, -6, 1, 4, "=", 13], [1, -3, 5, 8, ">", 27]]}'
p55
aS'{"sensitive": {}, "z": "Z", "goal": [0, -7, -4, -5], "dual": true, "sign_str": null, "x": "x", "sign": [">", "=", "<", "<"], "qtype": "max", "x_list": null, "constraints": [[-9, 3, -7, 3, "=", 38], [-1, -4, -5, -2, ">", 23], [0, -5, -6, 8, "<", 5]]}'
p56
aS'{"sensitive": {}, "z": "Z", "goal": [5, -4, 5, -5], "dual": true, "sign_str": null, "x": "x", "sign": ["<", ">", ">", "="], "qtype": "max", "x_list": null, "constraints": [[-1, -7, 3, 5, "<", 13], [-4, -7, 7, 3, ">", 24], [0, 4, 5, -6, "=", 28]]}'
p57
aS'{"sensitive": {}, "z": "Z", "goal": [-5, 4, -9, -6], "dual": true, "sign_str": null, "x": "x", "sign": ["=", "<", "<", ">"], "qtype": "max", "x_list": null, "constraints": [[5, -4, 2, 5, "<", 7], [7, -8, -7, -3, "=", 14], [0, 6, -6, -5, ">", 36]]}'
p58
aS'{"sensitive": {}, "z": "Z", "goal": [-3, -4, 6, -5], "dual": true, "sign_str": null, "x": "x", "sign": [">", "=", "<", ">"], "qtype": "max", "x_list": null, "constraints": [[8, -3, -1, -8, ">", 32], [7, -4, 2, -9, "=", 18], [-3, -2, 7, 3, "<", 8]]}'
p59
aS'{"sensitive": {}, "z": "Z", "goal": [7, 1, 8, 4], "dual": true, "sign_str": null, "x": "x", "sign": [">", "=", "<", ">"], "qtype": "max", "x_list": null, "constraints": [[5, -8, -6, 7, "<", 5], [-7, 6, -1, 1, ">", 18], [-5, -7, -1, 4, "=", 22]]}'
p60
aS'{"sensitive": {}, "z": "Z", "goal": [-1, -8, 6, -9], "dual": true, "sign_str": null, "x": "x", "sign": ["<", "=", "=", ">"], "qtype": "max", "x_list": null, "constraints": [[-8, -2, -2, 8, "=", 18], [-9, 3, -8, -6, ">", 39], [-5, 3, -2, -2, "<", 29]]}'
p61
aS'{"sensitive": {}, "z": "Z", "goal": [6, 5, -3, 2], "dual": true, "sign_str": null, "x": "x", "sign": ["<", ">", ">", "="], "qtype": "max", "x_list": null, "constraints": [[-4, -2, 5, 1, "=", 20], [6, -3, 4, 4, ">", 25], [-6, 6, -6, -6, "<", 12]]}'
p62
aS'{"sensitive": {}, "z": "Z", "goal": [7, 4, -6, -9], "dual": true, "sign_str": null, "x": "x", "sign": [">", "<", "=", ">"], "qtype": "max", "x_list": null, "constraints": [[-1, 6, 1, 8, "=", 11], [-6, 8, -8, -7, "<", 18], [-9, 8, -3, 3, ">", 27]]}'
p63
aS'{"sensitive": {}, "z": "Z", "goal": [4, -4, 4, -7], "dual": true, "sign_str": null, "x": "x", "sign": ["=", "=", "<", ">"], "qtype": "max", "x_list": null, "constraints": [[0, -1, 1, 5, "<", 20], [6, 1, -4, -3, "=", 12], [-6, -5, -8, 6, ">", 7]]}'
p64
aS'{"sensitive": {}, "z": "Z", "goal": [4, -2, -3, -7], "dual": true, "sign_str": null, "x": "x", "sign": ["=", "<", "=", ">"], "qtype": "max", "x_list": null, "constraints": [[-6, 4, 3, -3, "<", 2], [-6, -8, 6, -2, ">", 6], [-2, 7, 7, 4, "=", 32]]}'
p65
aS'{"sensitive": {}, "z": "Z", "goal": [-9, -9, -7, 4], "dual": true, "sign_str": null, "x": "x", "sign": [">", "=", ">", "<"], "qtype": "max", "x_list": null, "constraints": [[-8, -9, -3, 2, ">", 25], [-2, 8, -2, 8, "<", 10], [-3, 0, 0, -6, "=", 38]]}'
p66
aS'{"sensitive": {}, "z": "Z", "goal": [-8, -8, 4, 3], "dual": true, "sign_str": null, "x": "x", "sign": [">", "=", "<", ">"], "qtype": "max", "x_list": null, "constraints": [[-6, 3, -5, 6, ">", 20], [-5, 0, 8, -4, "<", 14], [0, 8, 6, 0, "=", 17]]}'
p67
aS'{"sensitive": {}, "z": "Z", "goal": [-6, 4, -2, -6], "dual": true, "sign_str": null, "x": "x", "sign": ["<", "=", ">", "="], "qtype": "max", "x_list": null, "constraints": [[-6, 4, 3, -2, "<", 21], [-9, -2, 7, -1, "=", 28], [-2, 4, -1, -4, ">", 32]]}'
p68
aS'{"sensitive": {}, "z": "Z", "goal": [7, -7, 1, 2], "dual": true, "sign_str": null, "x": "x", "sign": [">", "<", "=", "<"], "qtype": "max", "x_list": null, "constraints": [[3, 2, 6, 4, "<", 26], [3, -5, 3, -1, "=", 2], [8, 7, -3, -3, ">", 5]]}'
p69
aS'{"sensitive": {}, "z": "Z", "goal": [-8, 4, 6, -9], "dual": true, "sign_str": null, "x": "x", "sign": ["<", "=", ">", "<"], "qtype": "max", "x_list": null, "constraints": [[3, 5, -9, -6, "<", 7], [-4, -3, 8, -1, "=", 23], [4, 4, 6, -4, ">", 15]]}'
p70
aS'{"sensitive": {}, "z": "Z", "goal": [-6, -7, -2, -7], "dual": true, "sign_str": null, "x": "x", "sign": ["=", "=", ">", "<"], "qtype": "max", "x_list": null, "constraints": [[-8, -6, 7, 5, "=", 12], [-6, 2, 4, -5, "<", 18], [-8, 6, -1, 0, ">", 39]]}'
p71
aS'{"sensitive": {}, "z": "Z", "goal": [-3, 0, 1, 5], "dual": true, "sign_str": null, "x": "x", "sign": ["<", ">", "=", "="], "qtype": "max", "x_list": null, "constraints": [[8, -8, 5, -7, ">", 10], [-5, -9, -3, -4, "<", 38], [-7, -9, 4, 7, "=", 20]]}'
p72
aS'{"sensitive": {}, "z": "Z", "goal": [6, 5, -6, 6], "dual": true, "sign_str": null, "x": "x", "sign": ["=", ">", "<", "<"], "qtype": "max", "x_list": null, "constraints": [[4, -8, -2, 4, ">", 25], [1, -2, -9, -8, "<", 17], [7, -6, -1, -1, "=", 21]]}'
p73
aS'{"sensitive": {}, "z": "Z", "goal": [0, 0, 1, 7], "dual": true, "sign_str": null, "x": "x", "sign": ["=", ">", "=", "<"], "qtype": "max", "x_list": null, "constraints": [[0, -6, -1, 2, "<", 14], [3, -4, 8, 0, "=", 32], [-1, 4, 5, -2, ">", 8]]}'
p74
aS'{"sensitive": {}, "z": "Z", "goal": [5, 7, 1, 7], "dual": true, "sign_str": null, "x": "x", "sign": [">", ">", "=", "<"], "qtype": "max", "x_list": null, "constraints": [[-1, -8, 3, 5, "=", 38], [0, 3, 6, -8, "<", 19], [-8, -2, -9, 3, ">", 26]]}'
p75
aS'{"sensitive": {}, "z": "Z", "goal": [-2, -4, -7, -8], "dual": true, "sign_str": null, "x": "x", "sign": ["=", "<", "=", ">"], "qtype": "max", "x_list": null, "constraints": [[0, 0, 4, -5, ">", 31], [1, -7, -4, -2, "<", 32], [-1, 6, 8, -8, "=", 1]]}'
p76
aS'{"sensitive": {}, "z": "Z", "goal": [0, 1, 8, -5], "dual": true, "sign_str": null, "x": "x", "sign": ["<", "=", "=", ">"], "qtype": "max", "x_list": null, "constraints": [[-2, 8, 6, -3, "=", 16], [0, -1, 2, 0, ">", 26], [2, -1, -4, 4, "<", 34]]}'
p77
aS'{"sensitive": {}, "z": "Z", "goal": [8, 5, -1, -4], "dual": true, "sign_str": null, "x": "x", "sign": ["=", "<", "=", ">"], "qtype": "max", "x_list": null, "constraints": [[2, 4, 6, -8, "=", 39], [-1, -8, 0, -2, ">", 4], [-3, 7, 4, 2, "<", 39]]}'
p78
aS'{"sensitive": {}, "z": "Z", "goal": [-7, 3, 5, 5], "dual": true, "sign_str": null, "x": "x", "sign": ["=", ">", "<", ">"], "qtype": "max", "x_list": null, "constraints": [[-2, -2, -2, 2, ">", 24], [-1, 3, 4, 4, "=", 21], [7, 6, 3, -9, "<", 21]]}'
p79
aS'{"sensitive": {}, "z": "Z", "goal": [8, -7, -2, 0], "dual": true, "sign_str": null, "x": "x", "sign": ["<", ">", "=", ">"], "qtype": "max", "x_list": null, "constraints": [[5, -6, -2, 3, "=", 32], [2, -5, -8, 7, "<", 8], [8, -3, 1, 0, ">", 13]]}'
p80
aS'{"sensitive": {}, "z": "Z", "goal": [-6, 7, 2, -7], "dual": true, "sign_str": null, "x": "x", "sign": [">", ">", "<", "="], "qtype": "max", "x_list": null, "constraints": [[2, 4, 8, -5, ">", 16], [-3, 0, 0, 8, "<", 34], [8, -1, 2, 2, "=", 20]]}'
p81
aS'{"sensitive": {}, "z": "Z", "goal": [0, 3, -6, -8], "dual": true, "sign_str": null, "x": "x", "sign": ["<", "<", "=", ">"], "qtype": "max", "x_list": null, "constraints": [[-4, 1, -7, -5, ">", 30], [-2, 4, 5, 4, "=", 33], [2, -7, 0, 2, "<", 19]]}'
p82
aS'{"sensitive": {}, "z": "Z", "goal": [8, 4, 0, 2], "dual": true, "sign_str": null, "x": "x", "sign": [">", "<", ">", "="], "qtype": "max", "x_list": null, "constraints": [[6, -3, 6, 5, ">", 3], [-7, 0, 7, -5, "=", 24], [-8, -1, 2, 4, "<", 31]]}'
p83
aS'{"sensitive": {}, "z": "Z", "goal": [4, -1, 4, 5], "dual": true, "sign_str": null, "x": "x", "sign": ["<", "=", "=", ">"], "qtype": "max", "x_list": null, "constraints": [[-7, -1, 2, -1, "<", 23], [-6, 8, -3, 6, "=", 25], [-1, -3, 6, -3, ">", 34]]}'
p84
aS'{"sensitive": {}, "z": "Z", "goal": [5, -8, -4, -8], "dual": true, "sign_str": null, "x": "x", "sign": [">", "=", "<", "<"], "qtype": "max", "x_list": null, "constraints": [[-1, 2, 4, 1, "=", 32], [3, -9, 0, 7, ">", 28], [4, 8, -9, -5, "<", 25]]}'
p85
aS'{"sensitive": {}, "z": "Z", "goal": [-9, -3, 2, -3], "dual": true, "sign_str": null, "x": "x", "sign": [">", "<", "=", "="], "qtype": "max", "x_list": null, "constraints": [[6, 5, -4, 3, ">", 14], [-5, -4, -6, -1, "=", 26], [8, -2, 0, 0, "<", 24]]}'
p86
aS'{"sensitive": {}, "z": "Z", "goal": [-3, -1, -2, 2], "dual": true, "sign_str": null, "x": "x", "sign": ["=", "=", "<", ">"], "qtype": "max", "x_list": null, "constraints": [[3, -1, 4, 1, "=", 29], [3, -9, 0, -3, "<", 12], [-2, -5, -6, 1, ">", 29]]}'
p87
aS'{"sensitive": {}, "z": "Z", "goal": [-7, 0, -4, 3], "dual": true, "sign_str": null, "x": "x", "sign": ["=", "<", "=", ">"], "qtype": "max", "x_list": null, "constraints": [[0, -3, 6, -1, "=", 28], [2, -9, 8, -7, "<", 35], [2, 7, 4, 5, ">", 17]]}'
p88
aS'{"sensitive": {}, "z": "Z", "goal": [2, -5, -7, 3], "dual": true, "sign_str": null, "x": "x", "sign": [">", "=", "<", "="], "qtype": "max", "x_list": null, "constraints": [[4, -3, -3, -9, "<", 9], [5, -5, -6, 1, "=", 20], [-9, 2, -5, 5, ">", 12]]}'
p89
aS'{"sensitive": {}, "z": "Z", "goal": [-3, -2, 2, 8], "dual": true, "sign_str": null, "x": "x", "sign": ["=", "=", ">", "<"], "qtype": "max", "x_list": null, "constraints": [[0, -2, 3, 6, ">", 14], [4, 7, -5, -4, "<", 32], [5, -2, -6, 2, "=", 2]]}'
p90
aS'{"sensitive": {}, "z": "Z", "goal": [0, 8, -5, 0], "dual": true, "sign_str": null, "x": "x", "sign": [">", "=", ">", "<"], "qtype": "max", "x_list": null, "constraints": [[0, 5, 8, 7, "=", 27], [7, -9, -4, -8, "<", 35], [5, -9, -6, -2, ">", 37]]}'
p91
aS'{"sensitive": {}, "z": "Z", "goal": [-3, -1, -5, -5], "dual": true, "sign_str": null, "x": "x", "sign": [">", "=", "<", ">"], "qtype": "max", "x_list": null, "constraints": [[4, 4, -8, -5, "=", 16], [1, -2, -2, -6, "<", 2], [-8, 4, 4, 2, ">", 31]]}'
p92
aS'{"sensitive": {}, "z": "Z", "goal": [-7, -3, -6, 6], "dual": true, "sign_str": null, "x": "x", "sign": ["<", ">", "<", "="], "qtype": "max", "x_list": null, "constraints": [[3, -1, 5, -9, "=", 27], [-1, -4, -8, -2, "<", 38], [1, 3, -8, -3, ">", 24]]}'
p93
aS'{"sensitive": {}, "z": "Z", "goal": [-9, -4, -6, 0], "dual": true, "sign_str": null, "x": "x", "sign": [">", ">", "<", "="], "qtype": "max", "x_list": null, "constraints": [[-7, 8, 0, -8, "=", 12], [-8, -1, 8, 6, ">", 38], [3, 5, -6, 5, "<", 23]]}'
p94
aS'{"sensitive": {}, "z": "Z", "goal": [4, 8, 4, -5], "dual": true, "sign_str": null, "x": "x", "sign": ["=", ">", "<", "<"], "qtype": "max", "x_list": null, "constraints": [[-3, 4, 3, 3, "<", 20], [-9, 4, -8, 8, "=", 36], [4, -8, 7, 5, ">", 12]]}'
p95
aS'{"sensitive": {}, "z": "Z", "goal": [-9, 3, 2, -7], "dual": true, "sign_str": null, "x": "x", "sign": ["=", ">", "=", "<"], "qtype": "max", "x_list": null, "constraints": [[5, 3, 3, -5, "<", 27], [1, -5, -9, -8, ">", 36], [4, 5, -5, 8, "=", 12]]}'
p96
aS'{"sensitive": {}, "z": "Z", "goal": [2, -9, -2, 5], "dual": true, "sign_str": null, "x": "x", "sign": ["<", "=", "<", ">"], "qtype": "max", "x_list": null, "constraints": [[7, 7, -9, 7, ">", 29], [-4, 4, 4, -7, "<", 24], [3, 6, 8, -5, "=", 2]]}'
p97
aS'{"sensitive": {}, "z": "Z", "goal": [7, 0, 7, 6], "dual": true, "sign_str": null, "x": "x", "sign": ["<", "<", "=", ">"], "qtype": "max", "x_list": null, "constraints": [[5, -8, -2, -2, "<", 7], [7, -5, -2, 4, ">", 24], [6, 2, -7, -2, "=", 11]]}'
p98
aS'{"sensitive": {}, "z": "Z", "goal": [6, 0, 2, 7], "dual": true, "sign_str": null, "x": "x", "sign": ["<", ">", "=", "="], "qtype": "max", "x_list": null, "constraints": [[-1, 2, 0, 1, ">", 37], [-5, 8, 4, 0, "=", 27], [6, -3, 6, -2, "<", 21]]}'
p99
aS'{"sensitive": {}, "z": "Z", "goal": [3, 7, -1, -3], "dual": true, "sign_str": null, "x": "x", "sign": ["<", ">", "<", "="], "qtype": "max", "x_list": null, "constraints": [[1, -2, 2, -5, "<", 31], [5, 0, -7, 1, ">", 3], [-3, 3, 0, -5, "=", 16]]}'
p100
a.