(lp0
S'{"sensitive": {"A": [[[3, 2, 1, "<", 10]]], "p": [[[2], [-1, 4], [-1, 2]]], "c": [[[1], null]], "b": [[[0], null], [[1], 35]]}, "z": "Z", "goal": [3, 4, 1], "dual": false, "sign_str": null, "x": "x", "sign": null, "qtype": "max", "x_list": null, "constraints": [[1, 1, 3, "<", 8], [1, 2, 4, "<", 15]]}'
p1
aS'{"sensitive": {"A": [[[3, 2, 1, "<", 10]]], "p": [[[2], [-1, 4], [-1, 2]]], "c": [[[1], null]], "b": [[[0], null], [[1], 35]]}, "z": "Z", "goal": [2, 3, 1], "dual": false, "sign_str": null, "x": "x", "sign": null, "qtype": "max", "x_list": null, "constraints": [[2, 1, 3, "<", 7], [1, 4, 3, "<", 14]]}'
p2
aS'{"sensitive": {"A": [[[2, 3, 1, "<", 16]]], "p": [[[1], [2, 3], [1, 1]]], "c": [[[2], null]], "b": [[[0], 10], [[1], null]]}, "z": "Z", "goal": [4, 5, 6], "dual": false, "sign_str": null, "x": "x", "sign": null, "qtype": "max", "x_list": null, "constraints": [[1, 3, 2, "<", 20], [4, 2, 3, "<", 45]]}'
p3
aS'{"sensitive": {"A": [[[1, 1, 1, "<", 3]]], "p": [[[2], [1, 1]]], "c": [[[1], null]], "b": [[[1], null], [[0], 10]]}, "z": "Z", "goal": [6, -2, 4], "dual": false, "sign_str": null, "x": "x", "sign": null, "qtype": "max", "x_list": null, "constraints": [[2, -1, 2, "<", 2], [1, 1, 4, "<", 4]]}'
p4
aS'{"sensitive": {"A": [[[1, 1, 1, "<", 3]]], "p": [[[2], [1, 1]]], "c": [[[1], null]], "b": [[[1], null], [[0], 9]]}, "z": "Z", "goal": [6, 2, 5], "dual": false, "sign_str": null, "x": "x", "sign": null, "qtype": "max", "x_list": null, "constraints": [[2, -1, 1, "<", 2], [1, 1, 2, "<", 4]]}'
p5
aS'{"sensitive": {"A": [[[1, 0, 1, -2, "<", 11]]], "p": [[[1], [2, 1, 0], [0, -1, -2]]], "c": [[[0], null]], "b": [[[0], null], [null, [4, 10, 10]]]}, "z": "Z", "goal": [2, -1, 3, 1], "dual": false, "sign_str": null, "x": "x", "sign": null, "qtype": "max", "x_list": null, "constraints": [[1, 2, 1, 0, "<", 12], [2, -1, 0, 1, "<", 10], [0, 0, 1, 1, "<", 8]]}'
p6
aS'{"sensitive": {"A": [[[3, 4, 2, "<", 60]]], "x": [[{"p": [4, 2], "c": 4}, {"p": [1, 1], "c": 4}]], "c": [[[2], null]], "b": [[[1], null], [null, [180, 50]]]}, "z": "Z", "goal": [5, 2, 3], "dual": false, "sign_str": null, "x": "x", "sign": null, "qtype": "max", "x_list": null, "constraints": [[1, 2, 3, "<", 90], [2, 1, 1, "<", 50]]}'
p7
aS'{"sensitive": {"A": [[[1, 0, 1, "<", 2]]], "p": [[[1], [2, -1, 2], [1, -1, -1]]], "c": [[[0], null]], "b": [[[1], null], [[0], 2.5]]}, "z": "Z", "goal": [1, 2, 6], "dual": false, "sign_str": null, "x": "x", "sign": null, "qtype": "max", "x_list": null, "constraints": [[1, 1, 1, "<", 6], [2, -1, 1, "<", 4], [0, 1, 2, "<", 4]]}'
p8
aS'{"sensitive": {"A": [[[1, 0, 1, "<", 1]]], "p": [[[1], [1, -1, 2], [1, -1, -1]]], "c": [[[2], null]], "b": [[[2], null], [[1], 11]]}, "z": "Z", "goal": [1, 2, 6], "dual": false, "sign_str": null, "x": "x", "sign": null, "qtype": "max", "x_list": null, "constraints": [[1, 1, 1, "<", 6], [2, -1, 1, "<", 4], [0, 1, 2, "<", 4]]}'
p9
aS'{"sensitive": {"A": [[[1, 1, 1, "<", 10]]], "p": [[[0], [2, 1]]], "c": [[[1], null]], "b": [[[0], null], [[1], 8]]}, "z": "Z", "goal": [5, 6, 8], "dual": false, "sign_str": null, "x": "x", "sign": null, "qtype": "max", "x_list": null, "constraints": [[6, 3, 2, "<", 27], [2, 1, 3, "<", 30]]}'
p10
aS'{"sensitive": {"A": [[[2, 2, 1, "<", 10]]], "p": [[[0], [2, 3], [1, 1]]], "c": [[[2], null]], "b": [[[0], 18], [[1], null]]}, "z": "Z", "goal": [5, 6, 8], "dual": false, "sign_str": null, "x": "x", "sign": null, "qtype": "max", "x_list": null, "constraints": [[6, 3, 2, "<", 27], [2, 1, 3, "<", 30]]}'
p11
aS'{"sensitive": {"A": [[[1, 2, 3, "<", 24]]], "p": [[[2], [1, 2], [0.3333333333333333, 0.5]]], "c": [[[0], null]], "b": [[[0], 9], [[1], null]]}, "z": "Z", "goal": [3, 6, 2], "dual": false, "sign_str": null, "x": "x", "sign": null, "qtype": "max", "x_list": null, "constraints": [[1, 1, 1, "<", 15], [1, 4, 7, "<", 45]]}'
p12
aS'{"sensitive": {"A": [[[2, 1, 3, "<", 4]]], "p": [[[2], [2, 1], [0.3333333333333333, 0.5]]], "c": [[[1], null]], "b": [[[0], 2], [[1], null]]}, "z": "Z", "goal": [6, 3, 2], "dual": false, "sign_str": null, "x": "x", "sign": null, "qtype": "max", "x_list": null, "constraints": [[1, 1, 1, "<", 3], [4, 1, 7, "<", 9]]}'
p13
aS'{"sensitive": {"A": [[[2, 3, 1, "<", 13]]], "p": [[[1], [1, 3, 4], [1, 3, 2]]], "c": [[[0], null, 5]], "b": [[[1], null], [[2], 33]]}, "z": "Z", "goal": [5, 3, 4], "dual": false, "sign_str": null, "x": "x", "sign": null, "qtype": "max", "x_list": null, "constraints": [[3, 1, 2, "<", 32], [4, 3, 4, "<", 48], [4, 5, 3, "<", 40]]}'
p14
aS'{"sensitive": {"A": [[[2, 2, 3, "<", 8]]], "p": [[[2], [2, 1], [-1, 2]]], "c": [[[2], null]], "b": [[[0], null], [[1], 15]]}, "z": "Z", "goal": [3, 2, 1], "dual": false, "sign_str": null, "x": "x", "sign": null, "qtype": "max", "x_list": null, "constraints": [[2, 1, 3, "<", 6], [1, 2, 2, "<", 9]]}'
p15
aS'{"sensitive": {"A": [[[2, 2, 3, "<", 8]]], "p": [[[0], [1, 2], [-2, 1]]], "c": [[[2], null]], "b": [[[0], 18], [[1], null]]}, "z": "Z", "goal": [2, 5, 4], "dual": false, "sign_str": null, "x": "x", "sign": null, "qtype": "max", "x_list": null, "constraints": [[2, 1, 1, "<", 6], [3, 4, 2, "<", 16]]}'
p16
aS'{"sensitive": {"A": [[[2, 2, 3, "<", 8]]], "x": [[{"p": [2, 2], "c": 3}, {"p": [1, 2], "c": 4}]], "c": [[[0], null]], "b": [[[0], null], [[1], 22]]}, "z": "Z", "goal": [3, 5, -1], "dual": false, "sign_str": null, "x": "x", "sign": null, "qtype": "max", "x_list": null, "constraints": [[1, 2, 4, "<", 8], [2, 1, -2, "<", 7]]}'
p17
aS'{"sensitive": {"A": [[[2, 2, 3, "<", 10]]], "p": [[[0], [1, 2], [-1, 1]]], "c": [[[0], null]], "b": [[[0], null], [[1], 22]]}, "z": "Z", "goal": [4, 5, 4], "dual": false, "sign_str": null, "x": "x", "sign": null, "qtype": "max", "x_list": null, "constraints": [[1, 1, 1, "<", 8], [3, 2, 1, "<", 15]]}'
p18
aS'{"sensitive": {"A": [[[2, 3, 1, 2, "<", 14]]], "x": [[{"p": [1, 4, 6], "c": 6}, {"p": [1, 3, 3], "c": 6}]], "c": [[[1], null]], "b": [[[0], 14], [[1], null]]}, "z": "Z", "goal": [2, 5, 2, 4], "dual": false, "sign_str": null, "x": "x", "sign": null, "qtype": "max", "x_list": null, "constraints": [[2, 3, 1, 2, "<", 20], [3, 2, 2, 2, "<", 14], [3, 4, 4, 3, "<", 22]]}'
p19
aS'{"sensitive": {"A": [[[2, 2, 3, "<", 6]]], "p": [[[2], [1, 2], [-1, 2]]], "c": [[[0], null]], "b": [[[0], null], [[1], 20]]}, "z": "Z", "goal": [7, 3, 2], "dual": false, "sign_str": null, "x": "x", "sign": null, "qtype": "max", "x_list": null, "constraints": [[4, 2, 3, "<", 10], [3, 1, 2, "<", 6]]}'
p20
aS'{"sensitive": {"A": [[[2, 2, 3, "<", 26]]], "x": [[{"p": [2, 2], "c": 3}, {"p": [2, 2], "c": 4}]], "c": [[[2], null]], "b": [[[0], 14], [[1], null]]}, "z": "Z", "goal": [3, 1, 2], "dual": false, "sign_str": null, "x": "x", "sign": null, "qtype": "max", "x_list": null, "constraints": [[1, 1, 4, "<", 28], [2, 2, 1, "<", 42]]}'
p21
aS'{"sensitive": {"A": [[[2, 2, 3, "<", 26]]], "x": [[{"p": [2, 2], "c": 3}, {"p": [1, 2], "c": 4}]], "c": [[[2], null]], "b": [[[0], 14], [[1], null]]}, "z": "Z", "goal": [2, 3, 7], "dual": false, "sign_str": null, "x": "x", "sign": null, "qtype": "max", "x_list": null, "constraints": [[1, 1, 4, "<", 28], [2, 2, 1, "<", 42]]}'
p22
aS'{"sensitive": {"A": [[[2, 2, 3, "<", 12]]], "x": [[{"p": [2, 2], "c": 3}, {"p": [1, 1], "c": 3}]], "c": [[[1], null]], "b": [[[0], 18, null], [[1], null]]}, "z": "Z", "goal": [5, 3, 2], "dual": false, "sign_str": null, "x": "x", "sign": null, "qtype": "max", "x_list": null, "constraints": [[1, 1, 1, "<", 9], [5, 2, 3, "<", 30]]}'
p23
aS'{"sensitive": {"A": [[[1, 2, 3, "<", 18]]], "p": [[[2], [1, 2], [-1, 2]]], "c": [[[1], null]], "b": [[[0], 9], [[1], null]]}, "z": "Z", "goal": [6, 4, 3], "dual": false, "sign_str": null, "x": "x", "sign": null, "qtype": "max", "x_list": null, "constraints": [[2, 1, 2, "<", 15], [1, 3, 4, "<", 30]]}'
p24
aS'{"sensitive": {"A": [[[2, 1, 3, "<", 15]]], "p": [[[1], [3, 2]]], "c": [[[0], null, 2]], "b": [[[1], null, 60]]}, "z": "Z", "goal": [3, 2, 4], "dual": false, "sign_str": null, "x": "x", "sign": null, "qtype": "max", "x_list": null, "constraints": [[6, 3, 5, "<", 45], [3, 4, 5, "<", 30]]}'
p25
a.