(lp0
ccopy_reg
_reconstructor
p1
(c__main__
LP
p2
c__builtin__
object
p3
Ntp4
Rp5
(dp6
S'fun'
p7
(lp8
sS'constraints_str_list'
p9
(lp10
S'&& x_{1}&{}+{}& x_{2}&{}+{}&3x_{3}&{}+{}&4x_{4}&&{}\\leqslant{}&8\\\\'
p11
aS'&& x_{1}&{}+{}&3x_{2}&{}+{}& x_{3}&{}+{}& x_{4}&&{}\\geqslant{}&21\\\\'
p12
aS'&&3x_{1}&{}+{}&2x_{2}&{}+{}& x_{3}&{}+{}&2x_{4}&&{}\\geqslant{}&15\\\\'
p13
asS'solve_goal_list'
p14
(lp15
sS'goal'
p16
(lp17
I2
aI5
aI3
aI5
asS'solve_n_variable'
p18
I0
sS'base_list'
p19
(lp20
sS'solve_xb_list'
p21
(lp22
sS'constraints_origin'
p23
(lp24
(lp25
I1
aI1
aI3
aI4
aS'<'
p26
aI8
aa(lp27
I1
aI3
aI1
aI1
aS'>'
p28
aI21
aa(lp29
I3
aI2
aI1
aI2
ag28
aI15
aasS'tableau_origin'
p30
NsS'sign'
p31
(lp32
g28
ag28
ag28
ag28
asS'goal_origin'
p33
(lp34
I2
aI5
aI3
aI5
asS'solve_cb_list'
p35
(lp36
sS'solve_x_list'
p37
(lp38
sS'sign_str'
p39
S'\\rlap{x_{1},x_{2},x_{3},x_{4}\\geqslant 0}'
p40
sS'tableau_list'
p41
(lp42
sS'x'
p43
g43
sS'z'
p44
S'Z'
p45
sS'type'
p46
S'max'
p47
sS'x_list'
p48
(lp49
S'x_{1}'
p50
aS'x_{2}'
p51
aS'x_{3}'
p52
aS'x_{4}'
p53
asS'constraints'
p54
(lp55
(lp56
I1
aI1
aI3
aI4
aS'\\leqslant'
p57
aI8
aa(lp58
I1
aI3
aI1
aI1
aS'\\geqslant'
p59
aI21
aa(lp60
I3
aI2
aI1
aI2
ag59
aI15
aasbag1
(g2
g3
Ntp61
Rp62
(dp63
g7
(lp64
sg9
(lp65
S'&& x_{1}&{}+{}& x_{2}&{}+{}&3x_{3}&{}+{}&4x_{4}&&{}\\leqslant{}&8\\\\'
p66
aS'&& x_{1}&{}+{}&3x_{2}&{}+{}& x_{3}&{}+{}& x_{4}&&{}\\geqslant{}&21\\\\'
p67
aS'&&3x_{1}&{}+{}&2x_{2}&{}+{}& x_{3}&{}+{}&2x_{4}&&{}\\geqslant{}&15\\\\'
p68
asg14
(lp69
sg16
(lp70
I3
aI6
aI3
aI4
asg18
I0
sg19
(lp71
sg21
(lp72
sg23
(lp73
(lp74
I1
aI1
aI3
aI4
ag26
aI8
aa(lp75
I1
aI3
aI1
aI1
ag28
aI21
aa(lp76
I3
aI2
aI1
aI2
ag28
aI15
aasg30
Nsg31
(lp77
g28
ag28
ag28
ag28
asg33
(lp78
I3
aI6
aI3
aI4
asg35
(lp79
sg37
(lp80
sg39
S'\\rlap{x_{1},x_{2},x_{3},x_{4}\\geqslant 0}'
p81
sg41
(lp82
sg43
g43
sg44
g45
sg46
S'max'
p83
sg48
(lp84
S'x_{1}'
p85
aS'x_{2}'
p86
aS'x_{3}'
p87
aS'x_{4}'
p88
asg54
(lp89
(lp90
I1
aI1
aI3
aI4
ag57
aI8
aa(lp91
I1
aI3
aI1
aI1
ag59
aI21
aa(lp92
I3
aI2
aI1
aI2
ag59
aI15
aasba.