(lp0
(lp1
(lp2
S'GOOGLE'
p3
aS'JAVA'
p4
aS'BART'
p5
aa(lp6
S'MICROSOFT'
p7
aS'PYTHON'
p8
aS'LISA'
p9
aS'PHP'
p10
aa(lp11
S'ADAM'
p12
aS'APPLE'
p13
aS'RUBY'
p14
aaa(lp15
(lp16
g9
ag10
ag14
aa(lp17
g8
ag3
ag13
ag5
aa(lp18
g4
ag7
ag12
aaa(lp19
(lp20
g5
ag3
ag4
aa(lp21
g8
ag12
ag7
ag14
aa(lp22
g13
ag10
ag9
aaa(lp23
(lp24
g14
ag7
ag10
aa(lp25
g5
ag12
ag4
ag13
aa(lp26
g8
ag9
ag3
aaa(lp27
(lp28
g7
ag13
ag4
aa(lp29
g14
ag10
ag5
ag9
aa(lp30
g3
ag8
ag12
aaa(lp31
(lp32
g13
ag8
ag12
aa(lp33
g14
ag10
ag5
ag4
aa(lp34
g3
ag7
ag9
aaa(lp35
(lp36
g8
ag9
ag5
aa(lp37
g14
ag3
ag10
ag13
aa(lp38
g12
ag4
ag7
aaa(lp39
(lp40
g5
ag3
ag14
aa(lp41
g8
ag9
ag12
ag7
aa(lp42
g13
ag10
ag4
aaa(lp43
(lp44
g12
ag10
ag9
aa(lp45
g14
ag4
ag3
ag5
aa(lp46
g8
ag7
ag13
aaa(lp47
(lp48
g8
ag9
ag13
aa(lp49
g7
ag12
ag3
ag4
aa(lp50
g14
ag5
ag10
aaa(lp51
(lp52
g3
ag9
ag14
aa(lp53
g8
ag5
ag12
ag10
aa(lp54
g13
ag7
ag4
aaa(lp55
(lp56
g9
ag10
ag4
aa(lp57
g14
ag8
ag7
ag13
aa(lp58
g3
ag5
ag12
aaa(lp59
(lp60
g8
ag5
ag12
aa(lp61
g3
ag13
ag4
ag9
aa(lp62
g14
ag10
ag7
aaa(lp63
(lp64
g14
ag12
ag7
aa(lp65
g10
ag3
ag9
ag13
aa(lp66
g4
ag5
ag8
aaa(lp67
(lp68
g14
ag13
ag8
aa(lp69
g4
ag5
ag3
ag10
aa(lp70
g9
ag12
ag7
aaa(lp71
(lp72
g8
ag4
ag13
aa(lp73
g14
ag9
ag12
ag7
aa(lp74
g5
ag3
ag10
aaa(lp75
(lp76
g8
ag4
ag10
aa(lp77
g9
ag14
ag12
ag3
aa(lp78
g5
ag7
ag13
aaa(lp79
(lp80
g9
ag3
ag4
aa(lp81
g7
ag14
ag10
ag8
aa(lp82
g13
ag5
ag12
aaa(lp83
(lp84
g7
ag9
ag12
aa(lp85
g10
ag5
ag13
ag4
aa(lp86
g8
ag14
ag3
aaa(lp87
(lp88
g7
ag4
ag8
aa(lp89
g3
ag14
ag10
ag13
aa(lp90
g5
ag9
ag12
aaa(lp91
(lp92
g10
ag12
ag14
aa(lp93
g13
ag7
ag8
ag3
aa(lp94
g5
ag4
ag9
aaa(lp95
(lp96
g14
ag3
ag9
aa(lp97
g13
ag5
ag7
ag8
aa(lp98
g12
ag10
ag4
aaa(lp99
(lp100
g3
ag4
ag12
aa(lp101
g8
ag13
ag14
ag7
aa(lp102
g9
ag10
ag5
aaa(lp103
(lp104
g14
ag5
ag7
aa(lp105
g13
ag8
ag4
ag12
aa(lp106
g3
ag9
ag10
aaa(lp107
(lp108
g8
ag5
ag10
aa(lp109
g14
ag9
ag3
ag13
aa(lp110
g12
ag7
ag4
aaa(lp111
(lp112
g7
ag8
ag5
aa(lp113
g4
ag14
ag10
ag9
aa(lp114
g12
ag13
ag3
aaa(lp115
(lp116
g5
ag7
ag13
aa(lp117
g4
ag9
ag12
ag8
aa(lp118
g10
ag14
ag3
aaa(lp119
(lp120
g14
ag5
ag10
aa(lp121
g9
ag8
ag3
ag7
aa(lp122
g4
ag12
ag13
aaa(lp123
(lp124
g12
ag4
ag3
aa(lp125
g9
ag13
ag8
ag10
aa(lp126
g7
ag14
ag5
aaa(lp127
(lp128
g5
ag7
ag10
aa(lp129
g12
ag3
ag13
ag9
aa(lp130
g8
ag4
ag14
aaa(lp131
(lp132
g10
ag14
ag13
aa(lp133
g9
ag4
ag7
ag3
aa(lp134
g12
ag8
ag5
aaa(lp135
(lp136
g10
ag14
ag7
aa(lp137
g12
ag4
ag9
ag13
aa(lp138
g8
ag5
ag3
aaa(lp139
(lp140
g13
ag5
ag7
aa(lp141
g9
ag4
ag14
ag12
aa(lp142
g8
ag10
ag3
aaa(lp143
(lp144
g3
ag7
ag5
aa(lp145
g9
ag12
ag4
ag14
aa(lp146
g13
ag8
ag10
aaa(lp147
(lp148
g9
ag12
ag4
aa(lp149
g3
ag13
ag7
ag8
aa(lp150
g14
ag5
ag10
aaa(lp151
(lp152
g7
ag14
ag4
aa(lp153
g5
ag9
ag3
ag10
aa(lp154
g12
ag13
ag8
aaa(lp155
(lp156
g12
ag9
ag14
aa(lp157
g4
ag13
ag3
ag5
aa(lp158
g8
ag10
ag7
aaa(lp159
(lp160
g3
ag5
ag9
aa(lp161
g10
ag4
ag13
ag7
aa(lp162
g12
ag8
ag14
aaa(lp163
(lp164
g14
ag9
ag13
aa(lp165
g7
ag8
ag4
ag12
aa(lp166
g5
ag3
ag10
aaa(lp167
(lp168
g8
ag9
ag4
aa(lp169
g3
ag5
ag7
ag14
aa(lp170
g13
ag10
ag12
aaa(lp171
(lp172
g13
ag14
ag8
aa(lp173
g12
ag7
ag10
ag9
aa(lp174
g3
ag4
ag5
aaa(lp175
(lp176
g12
ag7
ag3
aa(lp177
g14
ag4
ag10
ag13
aa(lp178
g8
ag5
ag9
aaa(lp179
(lp180
g13
ag5
ag9
aa(lp181
g3
ag8
ag4
ag12
aa(lp182
g14
ag10
ag7
aaa(lp183
(lp184
g13
ag7
ag8
aa(lp185
g12
ag5
ag14
ag10
aa(lp186
g9
ag3
ag4
aaa(lp187
(lp188
g14
ag9
ag5
aa(lp189
g7
ag13
ag4
ag10
aa(lp190
g8
ag12
ag3
aaa(lp191
(lp192
g5
ag3
ag14
aa(lp193
g10
ag9
ag4
ag8
aa(lp194
g12
ag13
ag7
aaa(lp195
(lp196
g8
ag12
ag13
aa(lp197
g3
ag7
ag14
ag9
aa(lp198
g4
ag10
ag5
aaa(lp199
(lp200
g7
ag10
ag12
aa(lp201
g14
ag9
ag4
ag3
aa(lp202
g13
ag5
ag8
aaa(lp203
(lp204
g14
ag8
ag9
aa(lp205
g12
ag7
ag5
ag4
aa(lp206
g3
ag13
ag10
aaa(lp207
(lp208
g3
ag4
ag12
aa(lp209
g14
ag13
ag7
ag9
aa(lp210
g5
ag8
ag10
aaa(lp211
(lp212
g4
ag13
ag8
aa(lp213
g14
ag12
ag7
ag10
aa(lp214
g3
ag9
ag5
aaa(lp215
(lp216
g7
ag9
ag4
aa(lp217
g12
ag14
ag8
ag3
aa(lp218
g10
ag13
ag5
aaa(lp219
(lp220
g7
ag8
ag4
aa(lp221
g3
ag5
ag13
ag9
aa(lp222
g14
ag12
ag10
aaa(lp223
(lp224
g13
ag4
ag12
aa(lp225
g8
ag9
ag3
ag14
aa(lp226
g10
ag7
ag5
aaa(lp227
(lp228
g13
ag7
ag10
aa(lp229
g12
ag9
ag3
ag14
aa(lp230
g5
ag8
ag4
aaa(lp231
(lp232
g9
ag14
ag5
aa(lp233
g3
ag4
ag13
ag7
aa(lp234
g10
ag8
ag12
aaa(lp235
(lp236
g13
ag5
ag14
aa(lp237
g12
ag3
ag4
ag10
aa(lp238
g7
ag8
ag9
aaa(lp239
(lp240
g12
ag10
ag8
aa(lp241
g13
ag4
ag5
ag3
aa(lp242
g14
ag7
ag9
aaa(lp243
(lp244
g9
ag8
ag10
aa(lp245
g3
ag12
ag4
ag14
aa(lp246
g7
ag5
ag13
aaa(lp247
(lp248
g3
ag14
ag4
aa(lp249
g10
ag5
ag8
ag12
aa(lp250
g13
ag7
ag9
aaa(lp251
(lp252
g10
ag9
ag5
aa(lp253
g14
ag12
ag3
ag4
aa(lp254
g13
ag8
ag7
aaa(lp255
(lp256
g13
ag8
ag9
aa(lp257
g7
ag4
ag12
ag5
aa(lp258
g14
ag3
ag10
aaa(lp259
(lp260
g3
ag5
ag13
aa(lp261
g9
ag4
ag14
ag12
aa(lp262
g10
ag7
ag8
aaa(lp263
(lp264
g5
ag4
ag3
aa(lp265
g9
ag10
ag14
ag13
aa(lp266
g8
ag7
ag12
aaa(lp267
(lp268
g7
ag10
ag8
aa(lp269
g13
ag5
ag4
ag3
aa(lp270
g14
ag12
ag9
aaa(lp271
(lp272
g10
ag12
ag3
aa(lp273
g5
ag7
ag13
ag14
aa(lp274
g9
ag8
ag4
aaa(lp275
(lp276
g13
ag8
ag12
aa(lp277
g14
ag7
ag9
ag4
aa(lp278
g5
ag10
ag3
aaa(lp279
(lp280
g7
ag5
ag12
aa(lp281
g14
ag13
ag4
ag8
aa(lp282
g3
ag9
ag10
aaa(lp283
(lp284
g10
ag9
ag3
aa(lp285
g5
ag4
ag7
ag12
aa(lp286
g14
ag8
ag13
aaa(lp287
(lp288
g13
ag10
ag5
aa(lp289
g9
ag4
ag8
ag12
aa(lp290
g14
ag7
ag3
aaa(lp291
(lp292
g9
ag5
ag7
aa(lp293
g12
ag4
ag13
ag8
aa(lp294
g14
ag3
ag10
aaa(lp295
(lp296
g13
ag5
ag8
aa(lp297
g14
ag10
ag3
ag7
aa(lp298
g12
ag4
ag9
aaa(lp299
(lp300
g10
ag9
ag14
aa(lp301
g3
ag4
ag12
ag7
aa(lp302
g5
ag8
ag13
aaa(lp303
(lp304
g13
ag10
ag12
aa(lp305
g4
ag9
ag3
ag7
aa(lp306
g14
ag5
ag8
aaa(lp307
(lp308
g8
ag7
ag5
aa(lp309
g14
ag4
ag10
ag3
aa(lp310
g12
ag9
ag13
aaa(lp311
(lp312
g7
ag5
ag9
aa(lp313
g10
ag13
ag14
ag8
aa(lp314
g12
ag4
ag3
aaa(lp315
(lp316
g7
ag8
ag5
aa(lp317
g10
ag12
ag3
ag4
aa(lp318
g13
ag14
ag9
aaa(lp319
(lp320
g3
ag12
ag8
aa(lp321
g7
ag13
ag9
ag5
aa(lp322
g10
ag14
ag4
aaa(lp323
(lp324
g9
ag12
ag4
aa(lp325
g7
ag3
ag5
ag14
aa(lp326
g8
ag13
ag10
aaa(lp327
(lp328
g13
ag9
ag12
aa(lp329
g5
ag8
ag14
ag10
aa(lp330
g7
ag4
ag3
aaa(lp331
(lp332
g4
ag14
ag8
aa(lp333
g10
ag5
ag7
ag12
aa(lp334
g3
ag9
ag13
aaa(lp335
(lp336
g9
ag4
ag14
aa(lp337
g8
ag7
ag10
ag5
aa(lp338
g3
ag12
ag13
aaa(lp339
(lp340
g13
ag14
ag10
aa(lp341
g7
ag4
ag8
ag3
aa(lp342
g12
ag9
ag5
aaa(lp343
(lp344
g5
ag12
ag13
aa(lp345
g8
ag4
ag10
ag14
aa(lp346
g3
ag7
ag9
aaa(lp347
(lp348
g14
ag4
ag5
aa(lp349
g9
ag8
ag7
ag3
aa(lp350
g10
ag13
ag12
aaa(lp351
(lp352
g4
ag3
ag10
aa(lp353
g5
ag9
ag8
ag14
aa(lp354
g12
ag7
ag13
aaa(lp355
(lp356
g5
ag10
ag14
aa(lp357
g8
ag3
ag9
ag4
aa(lp358
g7
ag12
ag13
aaa(lp359
(lp360
g10
ag4
ag13
aa(lp361
g5
ag14
ag9
ag8
aa(lp362
g12
ag3
ag7
aaa(lp363
(lp364
g14
ag4
ag13
aa(lp365
g9
ag3
ag12
ag10
aa(lp366
g7
ag8
ag5
aaa(lp367
(lp368
g3
ag9
ag4
aa(lp369
g13
ag12
ag10
ag8
aa(lp370
g14
ag7
ag5
aaa(lp371
(lp372
g12
ag3
ag5
aa(lp373
g4
ag10
ag9
ag8
aa(lp374
g7
ag13
ag14
aaa(lp375
(lp376
g10
ag5
ag7
aa(lp377
g12
ag13
ag4
ag8
aa(lp378
g9
ag3
ag14
aaa(lp379
(lp380
g12
ag9
ag13
aa(lp381
g8
ag7
ag5
ag3
aa(lp382
g4
ag10
ag14
aaa(lp383
(lp384
g5
ag3
ag10
aa(lp385
g14
ag13
ag12
ag7
aa(lp386
g8
ag4
ag9
aaa(lp387
(lp388
g3
ag13
ag9
aa(lp389
g14
ag10
ag8
ag5
aa(lp390
g12
ag7
ag4
aaa(lp391
(lp392
g8
ag12
ag10
aa(lp393
g4
ag13
ag9
ag7
aa(lp394
g5
ag3
ag14
aaa(lp395
(lp396
g7
ag3
ag8
aa(lp397
g12
ag10
ag13
ag14
aa(lp398
g5
ag9
ag4
aaa(lp399
(lp400
g5
ag8
ag12
aa(lp401
g10
ag14
ag3
ag9
aa(lp402
g7
ag4
ag13
aaa(lp403
(lp404
g7
ag8
ag4
aa(lp405
g13
ag10
ag3
ag14
aa(lp406
g12
ag9
ag5
aaa(lp407
(lp408
g13
ag10
ag14
aa(lp409
g3
ag9
ag4
ag8
aa(lp410
g12
ag7
ag5
aaa.